
msa_pagerank:     file format elf64-x86-64


Disassembly of section .text:

0000000000000000 <_ZN6ManSeg11TwoSegArrayILb0EE5allocERKm.isra.31>:
   0:	41 55                	push   %r13
   2:	41 54                	push   %r12
   4:	49 bd fe ff ff ff ff 	movabs $0x1ffffffffffffffe,%r13
   b:	ff ff 1f 
   e:	55                   	push   %rbp
   f:	53                   	push   %rbx
  10:	48 89 fb             	mov    %rdi,%rbx
  13:	48 83 ec 08          	sub    $0x8,%rsp
  17:	48 8b 02             	mov    (%rdx),%rax
  1a:	48 8d 78 01          	lea    0x1(%rax),%rdi
  1e:	4c 39 ef             	cmp    %r13,%rdi
  21:	77 60                	ja     83 <_ZN6ManSeg11TwoSegArrayILb0EE5allocERKm.isra.31+0x83>
  23:	48 c1 e7 02          	shl    $0x2,%rdi
  27:	49 89 d4             	mov    %rdx,%r12
  2a:	48 89 f5             	mov    %rsi,%rbp
  2d:	e8 00 00 00 00       	callq  32 <_ZN6ManSeg11TwoSegArrayILb0EE5allocERKm.isra.31+0x32>
  32:	48 89 03             	mov    %rax,(%rbx)
  35:	49 8b 04 24          	mov    (%r12),%rax
  39:	48 8d 78 01          	lea    0x1(%rax),%rdi
  3d:	4c 39 ef             	cmp    %r13,%rdi
  40:	77 41                	ja     83 <_ZN6ManSeg11TwoSegArrayILb0EE5allocERKm.isra.31+0x83>
  42:	48 c1 e7 02          	shl    $0x2,%rdi
  46:	e8 00 00 00 00       	callq  4b <_ZN6ManSeg11TwoSegArrayILb0EE5allocERKm.isra.31+0x4b>
  4b:	48 89 c1             	mov    %rax,%rcx
  4e:	49 8b 04 24          	mov    (%r12),%rax
  52:	48 85 c0             	test   %rax,%rax
  55:	78 15                	js     6c <_ZN6ManSeg11TwoSegArrayILb0EE5allocERKm.isra.31+0x6c>
  57:	48 8d 14 85 04 00 00 	lea    0x4(,%rax,4),%rdx
  5e:	00 
  5f:	48 89 cf             	mov    %rcx,%rdi
  62:	31 f6                	xor    %esi,%esi
  64:	e8 00 00 00 00       	callq  69 <_ZN6ManSeg11TwoSegArrayILb0EE5allocERKm.isra.31+0x69>
  69:	48 89 c1             	mov    %rax,%rcx
  6c:	48 83 c1 04          	add    $0x4,%rcx
  70:	48 83 03 04          	addq   $0x4,(%rbx)
  74:	48 89 4d 00          	mov    %rcx,0x0(%rbp)
  78:	48 83 c4 08          	add    $0x8,%rsp
  7c:	5b                   	pop    %rbx
  7d:	5d                   	pop    %rbp
  7e:	41 5c                	pop    %r12
  80:	41 5d                	pop    %r13
  82:	c3                   	retq   
  83:	e8 00 00 00 00       	callq  88 <_ZN6ManSeg11TwoSegArrayILb0EE5allocERKm.isra.31+0x88>
  88:	0f 1f 84 00 00 00 00 	nopl   0x0(%rax,%rax,1)
  8f:	00 

0000000000000090 <_ZN6ManSeg11TwoSegArrayILb0EE3delEv.isra.32>:
  90:	48 85 ff             	test   %rdi,%rdi
  93:	74 33                	je     c8 <_ZN6ManSeg11TwoSegArrayILb0EE3delEv.isra.32+0x38>
  95:	48 83 ef 04          	sub    $0x4,%rdi
  99:	74 2d                	je     c8 <_ZN6ManSeg11TwoSegArrayILb0EE3delEv.isra.32+0x38>
  9b:	48 83 ec 18          	sub    $0x18,%rsp
  9f:	48 89 74 24 08       	mov    %rsi,0x8(%rsp)
  a4:	e8 00 00 00 00       	callq  a9 <_ZN6ManSeg11TwoSegArrayILb0EE3delEv.isra.32+0x19>
  a9:	48 8b 74 24 08       	mov    0x8(%rsp),%rsi
  ae:	48 8b 3e             	mov    (%rsi),%rdi
  b1:	48 85 ff             	test   %rdi,%rdi
  b4:	74 32                	je     e8 <_ZN6ManSeg11TwoSegArrayILb0EE3delEv.isra.32+0x58>
  b6:	48 83 ef 04          	sub    $0x4,%rdi
  ba:	74 2c                	je     e8 <_ZN6ManSeg11TwoSegArrayILb0EE3delEv.isra.32+0x58>
  bc:	48 83 c4 18          	add    $0x18,%rsp
  c0:	e9 00 00 00 00       	jmpq   c5 <_ZN6ManSeg11TwoSegArrayILb0EE3delEv.isra.32+0x35>
  c5:	0f 1f 00             	nopl   (%rax)
  c8:	48 8b 3e             	mov    (%rsi),%rdi
  cb:	48 85 ff             	test   %rdi,%rdi
  ce:	74 10                	je     e0 <_ZN6ManSeg11TwoSegArrayILb0EE3delEv.isra.32+0x50>
  d0:	48 83 ef 04          	sub    $0x4,%rdi
  d4:	74 0a                	je     e0 <_ZN6ManSeg11TwoSegArrayILb0EE3delEv.isra.32+0x50>
  d6:	e9 00 00 00 00       	jmpq   db <_ZN6ManSeg11TwoSegArrayILb0EE3delEv.isra.32+0x4b>
  db:	0f 1f 44 00 00       	nopl   0x0(%rax,%rax,1)
  e0:	f3 c3                	repz retq 
  e2:	66 0f 1f 44 00 00    	nopw   0x0(%rax,%rax,1)
  e8:	48 83 c4 18          	add    $0x18,%rsp
  ec:	c3                   	retq   
  ed:	0f 1f 00             	nopl   (%rax)

00000000000000f0 <_Z8normDiffIN6ManSeg11TwoSegArrayILb1EEEEdRT_S4_Ri.isra.55>:
  f0:	85 d2                	test   %edx,%edx
  f2:	0f 8e 98 00 00 00    	jle    190 <_Z8normDiffIN6ManSeg11TwoSegArrayILb1EEEEdRT_S4_Ri.isra.55+0xa0>
  f8:	8d 42 ff             	lea    -0x1(%rdx),%eax
  fb:	4c 8b 0f             	mov    (%rdi),%r9
  fe:	4c 8b 47 10          	mov    0x10(%rdi),%r8
 102:	48 8b 4e 10          	mov    0x10(%rsi),%rcx
 106:	48 8b 3e             	mov    (%rsi),%rdi
 109:	66 0f ef db          	pxor   %xmm3,%xmm3
 10d:	48 8d 14 85 04 00 00 	lea    0x4(,%rax,4),%rdx
 114:	00 
 115:	31 c0                	xor    %eax,%eax
 117:	66 0f ef e4          	pxor   %xmm4,%xmm4
 11b:	f3 0f 7e 2d 00 00 00 	movq   0x0(%rip),%xmm5        # 123 <_Z8normDiffIN6ManSeg11TwoSegArrayILb1EEEEdRT_S4_Ri.isra.55+0x33>
 122:	00 
 123:	f3 0f 7e 35 00 00 00 	movq   0x0(%rip),%xmm6        # 12b <_Z8normDiffIN6ManSeg11TwoSegArrayILb1EEEEdRT_S4_Ri.isra.55+0x3b>
 12a:	00 
 12b:	0f 1f 44 00 00       	nopl   0x0(%rax,%rax,1)
 130:	66 0f 28 4c 07 fc    	movapd -0x4(%rdi,%rax,1),%xmm1
 136:	f3 0f 10 04 01       	movss  (%rcx,%rax,1),%xmm0
 13b:	66 41 0f 28 54 01 fc 	movapd -0x4(%r9,%rax,1),%xmm2
 142:	66 0f 54 cd          	andpd  %xmm5,%xmm1
 146:	66 0f 54 d5          	andpd  %xmm5,%xmm2
 14a:	66 0f 56 c8          	orpd   %xmm0,%xmm1
 14e:	f3 41 0f 10 04 00    	movss  (%r8,%rax,1),%xmm0
 154:	48 83 c0 04          	add    $0x4,%rax
 158:	66 0f 56 d0          	orpd   %xmm0,%xmm2
 15c:	48 39 c2             	cmp    %rax,%rdx
 15f:	f2 0f 5c ca          	subsd  %xmm2,%xmm1
 163:	66 0f 28 c1          	movapd %xmm1,%xmm0
 167:	66 0f 54 c6          	andpd  %xmm6,%xmm0
 16b:	f2 0f 58 c4          	addsd  %xmm4,%xmm0
 16f:	66 0f 28 c8          	movapd %xmm0,%xmm1
 173:	66 0f 28 e0          	movapd %xmm0,%xmm4
 177:	f2 0f 58 cb          	addsd  %xmm3,%xmm1
 17b:	f2 0f 5c d9          	subsd  %xmm1,%xmm3
 17f:	f2 0f 58 e3          	addsd  %xmm3,%xmm4
 183:	66 0f 28 d9          	movapd %xmm1,%xmm3
 187:	75 a7                	jne    130 <_Z8normDiffIN6ManSeg11TwoSegArrayILb1EEEEdRT_S4_Ri.isra.55+0x40>
 189:	66 0f 28 c1          	movapd %xmm1,%xmm0
 18d:	c3                   	retq   
 18e:	66 90                	xchg   %ax,%ax
 190:	66 0f ef c9          	pxor   %xmm1,%xmm1
 194:	66 0f 28 c1          	movapd %xmm1,%xmm0
 198:	c3                   	retq   
 199:	90                   	nop
 19a:	66 0f 1f 44 00 00    	nopw   0x0(%rax,%rax,1)

00000000000001a0 <_ZNSt7__cxx1112basic_stringIcSt11char_traitsIcESaIcEE12_M_constructIPKcEEvT_S8_St20forward_iterator_tag.isra.73>:
 1a0:	41 54                	push   %r12
 1a2:	55                   	push   %rbp
 1a3:	49 89 f4             	mov    %rsi,%r12
 1a6:	53                   	push   %rbx
 1a7:	48 89 fd             	mov    %rdi,%rbp
 1aa:	48 83 ec 10          	sub    $0x10,%rsp
 1ae:	64 48 8b 04 25 28 00 	mov    %fs:0x28,%rax
 1b5:	00 00 
 1b7:	48 89 44 24 08       	mov    %rax,0x8(%rsp)
 1bc:	31 c0                	xor    %eax,%eax
 1be:	48 85 f6             	test   %rsi,%rsi
 1c1:	75 09                	jne    1cc <_ZNSt7__cxx1112basic_stringIcSt11char_traitsIcESaIcEE12_M_constructIPKcEEvT_S8_St20forward_iterator_tag.isra.73+0x2c>
 1c3:	48 85 d2             	test   %rdx,%rdx
 1c6:	0f 85 93 00 00 00    	jne    25f <_ZNSt7__cxx1112basic_stringIcSt11char_traitsIcESaIcEE12_M_constructIPKcEEvT_S8_St20forward_iterator_tag.isra.73+0xbf>
 1cc:	4c 29 e2             	sub    %r12,%rdx
 1cf:	48 83 fa 0f          	cmp    $0xf,%rdx
 1d3:	48 89 d3             	mov    %rdx,%rbx
 1d6:	48 89 14 24          	mov    %rdx,(%rsp)
 1da:	77 44                	ja     220 <_ZNSt7__cxx1112basic_stringIcSt11char_traitsIcESaIcEE12_M_constructIPKcEEvT_S8_St20forward_iterator_tag.isra.73+0x80>
 1dc:	48 83 fa 01          	cmp    $0x1,%rdx
 1e0:	48 8b 45 00          	mov    0x0(%rbp),%rax
 1e4:	75 72                	jne    258 <_ZNSt7__cxx1112basic_stringIcSt11char_traitsIcESaIcEE12_M_constructIPKcEEvT_S8_St20forward_iterator_tag.isra.73+0xb8>
 1e6:	41 0f b6 14 24       	movzbl (%r12),%edx
 1eb:	88 10                	mov    %dl,(%rax)
 1ed:	48 8b 1c 24          	mov    (%rsp),%rbx
 1f1:	48 8b 45 00          	mov    0x0(%rbp),%rax
 1f5:	48 89 5d 08          	mov    %rbx,0x8(%rbp)
 1f9:	c6 04 18 00          	movb   $0x0,(%rax,%rbx,1)
 1fd:	48 8b 44 24 08       	mov    0x8(%rsp),%rax
 202:	64 48 33 04 25 28 00 	xor    %fs:0x28,%rax
 209:	00 00 
 20b:	75 5e                	jne    26b <_ZNSt7__cxx1112basic_stringIcSt11char_traitsIcESaIcEE12_M_constructIPKcEEvT_S8_St20forward_iterator_tag.isra.73+0xcb>
 20d:	48 83 c4 10          	add    $0x10,%rsp
 211:	5b                   	pop    %rbx
 212:	5d                   	pop    %rbp
 213:	41 5c                	pop    %r12
 215:	c3                   	retq   
 216:	66 2e 0f 1f 84 00 00 	nopw   %cs:0x0(%rax,%rax,1)
 21d:	00 00 00 
 220:	31 d2                	xor    %edx,%edx
 222:	48 89 e6             	mov    %rsp,%rsi
 225:	48 89 ef             	mov    %rbp,%rdi
 228:	e8 00 00 00 00       	callq  22d <_ZNSt7__cxx1112basic_stringIcSt11char_traitsIcESaIcEE12_M_constructIPKcEEvT_S8_St20forward_iterator_tag.isra.73+0x8d>
 22d:	48 8b 14 24          	mov    (%rsp),%rdx
 231:	48 89 45 00          	mov    %rax,0x0(%rbp)
 235:	48 89 55 10          	mov    %rdx,0x10(%rbp)
 239:	48 89 da             	mov    %rbx,%rdx
 23c:	4c 89 e6             	mov    %r12,%rsi
 23f:	48 89 c7             	mov    %rax,%rdi
 242:	e8 00 00 00 00       	callq  247 <_ZNSt7__cxx1112basic_stringIcSt11char_traitsIcESaIcEE12_M_constructIPKcEEvT_S8_St20forward_iterator_tag.isra.73+0xa7>
 247:	48 8b 1c 24          	mov    (%rsp),%rbx
 24b:	48 8b 45 00          	mov    0x0(%rbp),%rax
 24f:	eb a4                	jmp    1f5 <_ZNSt7__cxx1112basic_stringIcSt11char_traitsIcESaIcEE12_M_constructIPKcEEvT_S8_St20forward_iterator_tag.isra.73+0x55>
 251:	0f 1f 80 00 00 00 00 	nopl   0x0(%rax)
 258:	48 85 d2             	test   %rdx,%rdx
 25b:	74 98                	je     1f5 <_ZNSt7__cxx1112basic_stringIcSt11char_traitsIcESaIcEE12_M_constructIPKcEEvT_S8_St20forward_iterator_tag.isra.73+0x55>
 25d:	eb da                	jmp    239 <_ZNSt7__cxx1112basic_stringIcSt11char_traitsIcESaIcEE12_M_constructIPKcEEvT_S8_St20forward_iterator_tag.isra.73+0x99>
 25f:	48 8d 3d 00 00 00 00 	lea    0x0(%rip),%rdi        # 266 <_ZNSt7__cxx1112basic_stringIcSt11char_traitsIcESaIcEE12_M_constructIPKcEEvT_S8_St20forward_iterator_tag.isra.73+0xc6>
 266:	e8 00 00 00 00       	callq  26b <_ZNSt7__cxx1112basic_stringIcSt11char_traitsIcESaIcEE12_M_constructIPKcEEvT_S8_St20forward_iterator_tag.isra.73+0xcb>
 26b:	e8 00 00 00 00       	callq  270 <_ZNSt7__cxx1112basic_stringIcSt11char_traitsIcESaIcEEC2EPKcRKS3_.isra.75>

0000000000000270 <_ZNSt7__cxx1112basic_stringIcSt11char_traitsIcESaIcEEC2EPKcRKS3_.isra.75>:
 270:	53                   	push   %rbx
 271:	48 8d 47 10          	lea    0x10(%rdi),%rax
 275:	48 83 ca ff          	or     $0xffffffffffffffff,%rdx
 279:	48 89 fb             	mov    %rdi,%rbx
 27c:	48 83 ec 10          	sub    $0x10,%rsp
 280:	48 85 f6             	test   %rsi,%rsi
 283:	48 89 07             	mov    %rax,(%rdi)
 286:	74 16                	je     29e <_ZNSt7__cxx1112basic_stringIcSt11char_traitsIcESaIcEEC2EPKcRKS3_.isra.75+0x2e>
 288:	48 89 f7             	mov    %rsi,%rdi
 28b:	48 89 74 24 08       	mov    %rsi,0x8(%rsp)
 290:	e8 00 00 00 00       	callq  295 <_ZNSt7__cxx1112basic_stringIcSt11char_traitsIcESaIcEEC2EPKcRKS3_.isra.75+0x25>
 295:	48 8b 74 24 08       	mov    0x8(%rsp),%rsi
 29a:	48 8d 14 06          	lea    (%rsi,%rax,1),%rdx
 29e:	48 83 c4 10          	add    $0x10,%rsp
 2a2:	48 89 df             	mov    %rbx,%rdi
 2a5:	5b                   	pop    %rbx
 2a6:	e9 f5 fe ff ff       	jmpq   1a0 <_ZNSt7__cxx1112basic_stringIcSt11char_traitsIcESaIcEE12_M_constructIPKcEEvT_S8_St20forward_iterator_tag.isra.73>
 2ab:	90                   	nop
 2ac:	0f 1f 40 00          	nopl   0x0(%rax)

00000000000002b0 <_ZNSt14basic_ofstreamIcSt11char_traitsIcEE4openERKNSt7__cxx1112basic_stringIcS1_SaIcEEESt13_Ios_Openmode.constprop.537>:
 2b0:	53                   	push   %rbx
 2b1:	48 8b 36             	mov    (%rsi),%rsi
 2b4:	48 89 fb             	mov    %rdi,%rbx
 2b7:	ba 30 00 00 00       	mov    $0x30,%edx
 2bc:	48 83 c7 08          	add    $0x8,%rdi
 2c0:	e8 00 00 00 00       	callq  2c5 <_ZNSt14basic_ofstreamIcSt11char_traitsIcEE4openERKNSt7__cxx1112basic_stringIcS1_SaIcEEESt13_Ios_Openmode.constprop.537+0x15>
 2c5:	48 85 c0             	test   %rax,%rax
 2c8:	48 8b 03             	mov    (%rbx),%rax
 2cb:	74 13                	je     2e0 <_ZNSt14basic_ofstreamIcSt11char_traitsIcEE4openERKNSt7__cxx1112basic_stringIcS1_SaIcEEESt13_Ios_Openmode.constprop.537+0x30>
 2cd:	48 03 58 e8          	add    -0x18(%rax),%rbx
 2d1:	31 f6                	xor    %esi,%esi
 2d3:	48 89 df             	mov    %rbx,%rdi
 2d6:	5b                   	pop    %rbx
 2d7:	e9 00 00 00 00       	jmpq   2dc <_ZNSt14basic_ofstreamIcSt11char_traitsIcEE4openERKNSt7__cxx1112basic_stringIcS1_SaIcEEESt13_Ios_Openmode.constprop.537+0x2c>
 2dc:	0f 1f 40 00          	nopl   0x0(%rax)
 2e0:	48 03 58 e8          	add    -0x18(%rax),%rbx
 2e4:	8b 73 20             	mov    0x20(%rbx),%esi
 2e7:	48 89 df             	mov    %rbx,%rdi
 2ea:	5b                   	pop    %rbx
 2eb:	83 ce 04             	or     $0x4,%esi
 2ee:	e9 00 00 00 00       	jmpq   2f3 <_ZNSt14basic_ofstreamIcSt11char_traitsIcEE4openERKNSt7__cxx1112basic_stringIcS1_SaIcEEESt13_Ios_Openmode.constprop.537+0x43>
 2f3:	0f 1f 00             	nopl   (%rax)
 2f6:	66 2e 0f 1f 84 00 00 	nopw   %cs:0x0(%rax,%rax,1)
 2fd:	00 00 00 

0000000000000300 <_ZSt4endlIcSt11char_traitsIcEERSt13basic_ostreamIT_T0_ES6_.constprop.545>:
 300:	48 8b 05 00 00 00 00 	mov    0x0(%rip),%rax        # 307 <_ZSt4endlIcSt11char_traitsIcEERSt13basic_ostreamIT_T0_ES6_.constprop.545+0x7>
 307:	53                   	push   %rbx
 308:	48 8d 15 00 00 00 00 	lea    0x0(%rip),%rdx        # 30f <_ZSt4endlIcSt11char_traitsIcEERSt13basic_ostreamIT_T0_ES6_.constprop.545+0xf>
 30f:	48 8b 40 e8          	mov    -0x18(%rax),%rax
 313:	48 8b 9c 02 f0 00 00 	mov    0xf0(%rdx,%rax,1),%rbx
 31a:	00 
 31b:	48 85 db             	test   %rbx,%rbx
 31e:	74 4a                	je     36a <_ZSt4endlIcSt11char_traitsIcEERSt13basic_ostreamIT_T0_ES6_.constprop.545+0x6a>
 320:	80 7b 38 00          	cmpb   $0x0,0x38(%rbx)
 324:	74 1a                	je     340 <_ZSt4endlIcSt11char_traitsIcEERSt13basic_ostreamIT_T0_ES6_.constprop.545+0x40>
 326:	0f be 73 43          	movsbl 0x43(%rbx),%esi
 32a:	48 8d 3d 00 00 00 00 	lea    0x0(%rip),%rdi        # 331 <_ZSt4endlIcSt11char_traitsIcEERSt13basic_ostreamIT_T0_ES6_.constprop.545+0x31>
 331:	e8 00 00 00 00       	callq  336 <_ZSt4endlIcSt11char_traitsIcEERSt13basic_ostreamIT_T0_ES6_.constprop.545+0x36>
 336:	5b                   	pop    %rbx
 337:	48 89 c7             	mov    %rax,%rdi
 33a:	e9 00 00 00 00       	jmpq   33f <_ZSt4endlIcSt11char_traitsIcEERSt13basic_ostreamIT_T0_ES6_.constprop.545+0x3f>
 33f:	90                   	nop
 340:	48 89 df             	mov    %rbx,%rdi
 343:	e8 00 00 00 00       	callq  348 <_ZSt4endlIcSt11char_traitsIcEERSt13basic_ostreamIT_T0_ES6_.constprop.545+0x48>
 348:	48 8b 03             	mov    (%rbx),%rax
 34b:	48 8d 15 00 00 00 00 	lea    0x0(%rip),%rdx        # 352 <_ZSt4endlIcSt11char_traitsIcEERSt13basic_ostreamIT_T0_ES6_.constprop.545+0x52>
 352:	be 0a 00 00 00       	mov    $0xa,%esi
 357:	48 8b 40 30          	mov    0x30(%rax),%rax
 35b:	48 39 d0             	cmp    %rdx,%rax
 35e:	74 ca                	je     32a <_ZSt4endlIcSt11char_traitsIcEERSt13basic_ostreamIT_T0_ES6_.constprop.545+0x2a>
 360:	48 89 df             	mov    %rbx,%rdi
 363:	ff d0                	callq  *%rax
 365:	0f be f0             	movsbl %al,%esi
 368:	eb c0                	jmp    32a <_ZSt4endlIcSt11char_traitsIcEERSt13basic_ostreamIT_T0_ES6_.constprop.545+0x2a>
 36a:	e8 00 00 00 00       	callq  36f <_ZSt4endlIcSt11char_traitsIcEERSt13basic_ostreamIT_T0_ES6_.constprop.545+0x6f>
 36f:	90                   	nop

0000000000000370 <_ZNSt8__detail9_ExecutorIN9__gnu_cxx17__normal_iteratorIPKcNSt7__cxx1112basic_stringIcSt11char_traitsIcESaIcEEEEESaINS5_9sub_matchISB_EEENS5_12regex_traitsIcEELb0EE16_M_main_dispatchENSH_11_Match_modeESt17integral_constantIbLb0EE.constprop.538>:
 370:	41 57                	push   %r15
 372:	41 56                	push   %r14
 374:	48 8d 4f 60          	lea    0x60(%rdi),%rcx
 378:	41 55                	push   %r13
 37a:	41 54                	push   %r12
 37c:	55                   	push   %rbp
 37d:	53                   	push   %rbx
 37e:	48 89 fb             	mov    %rdi,%rbx
 381:	48 83 ec 78          	sub    $0x78,%rsp
 385:	4c 8b 6f 68          	mov    0x68(%rdi),%r13
 389:	4c 8b 67 40          	mov    0x40(%rdi),%r12
 38d:	64 48 8b 04 25 28 00 	mov    %fs:0x28,%rax
 394:	00 00 
 396:	48 89 44 24 68       	mov    %rax,0x68(%rsp)
 39b:	31 c0                	xor    %eax,%eax
 39d:	4c 3b 6f 70          	cmp    0x70(%rdi),%r13
 3a1:	48 8b 87 80 00 00 00 	mov    0x80(%rdi),%rax
 3a8:	48 89 4c 24 28       	mov    %rcx,0x28(%rsp)
 3ad:	48 89 44 24 40       	mov    %rax,0x40(%rsp)
 3b2:	0f 84 da 06 00 00    	je     a92 <_ZNSt8__detail9_ExecutorIN9__gnu_cxx17__normal_iteratorIPKcNSt7__cxx1112basic_stringIcSt11char_traitsIcESaIcEEEEESaINS5_9sub_matchISB_EEENS5_12regex_traitsIcEELb0EE16_M_main_dispatchENSH_11_Match_modeESt17integral_constantIbLb0EE.constprop.538+0x722>
 3b8:	4d 85 ed             	test   %r13,%r13
 3bb:	0f 84 c4 00 00 00    	je     485 <_ZNSt8__detail9_ExecutorIN9__gnu_cxx17__normal_iteratorIPKcNSt7__cxx1112basic_stringIcSt11char_traitsIcESaIcEEEEESaINS5_9sub_matchISB_EEENS5_12regex_traitsIcEELb0EE16_M_main_dispatchENSH_11_Match_modeESt17integral_constantIbLb0EE.constprop.538+0x115>
 3c1:	49 8b 6c 24 08       	mov    0x8(%r12),%rbp
 3c6:	49 2b 2c 24          	sub    (%r12),%rbp
 3ca:	48 ba ab aa aa aa aa 	movabs $0xaaaaaaaaaaaaaaab,%rdx
 3d1:	aa aa aa 
 3d4:	49 89 45 00          	mov    %rax,0x0(%r13)
 3d8:	49 c7 45 08 00 00 00 	movq   $0x0,0x8(%r13)
 3df:	00 
 3e0:	4c 89 ef             	mov    %r13,%rdi
 3e3:	49 c7 45 10 00 00 00 	movq   $0x0,0x10(%r13)
 3ea:	00 
 3eb:	49 c7 45 18 00 00 00 	movq   $0x0,0x18(%r13)
 3f2:	00 
 3f3:	48 89 e8             	mov    %rbp,%rax
 3f6:	48 c1 f8 03          	sar    $0x3,%rax
 3fa:	48 0f af c2          	imul   %rdx,%rax
 3fe:	48 85 c0             	test   %rax,%rax
 401:	74 1f                	je     422 <_ZNSt8__detail9_ExecutorIN9__gnu_cxx17__normal_iteratorIPKcNSt7__cxx1112basic_stringIcSt11char_traitsIcESaIcEEEEESaINS5_9sub_matchISB_EEENS5_12regex_traitsIcEELb0EE16_M_main_dispatchENSH_11_Match_modeESt17integral_constantIbLb0EE.constprop.538+0xb2>
 403:	48 ba aa aa aa aa aa 	movabs $0xaaaaaaaaaaaaaaa,%rdx
 40a:	aa aa 0a 
 40d:	48 39 d0             	cmp    %rdx,%rax
 410:	0f 87 f7 06 00 00    	ja     b0d <_ZNSt8__detail9_ExecutorIN9__gnu_cxx17__normal_iteratorIPKcNSt7__cxx1112basic_stringIcSt11char_traitsIcESaIcEEEEESaINS5_9sub_matchISB_EEENS5_12regex_traitsIcEELb0EE16_M_main_dispatchENSH_11_Match_modeESt17integral_constantIbLb0EE.constprop.538+0x79d>
 416:	48 89 ef             	mov    %rbp,%rdi
 419:	e8 00 00 00 00       	callq  41e <_ZNSt8__detail9_ExecutorIN9__gnu_cxx17__normal_iteratorIPKcNSt7__cxx1112basic_stringIcSt11char_traitsIcESaIcEEEEESaINS5_9sub_matchISB_EEENS5_12regex_traitsIcEELb0EE16_M_main_dispatchENSH_11_Match_modeESt17integral_constantIbLb0EE.constprop.538+0xae>
 41e:	48 8b 7b 68          	mov    0x68(%rbx),%rdi
 422:	48 01 c5             	add    %rax,%rbp
 425:	49 89 45 08          	mov    %rax,0x8(%r13)
 429:	49 89 45 10          	mov    %rax,0x10(%r13)
 42d:	49 89 6d 18          	mov    %rbp,0x18(%r13)
 431:	49 8b 4c 24 08       	mov    0x8(%r12),%rcx
 436:	49 8b 14 24          	mov    (%r12),%rdx
 43a:	48 39 d1             	cmp    %rdx,%rcx
 43d:	0f 84 90 06 00 00    	je     ad3 <_ZNSt8__detail9_ExecutorIN9__gnu_cxx17__normal_iteratorIPKcNSt7__cxx1112basic_stringIcSt11char_traitsIcESaIcEEEEESaINS5_9sub_matchISB_EEENS5_12regex_traitsIcEELb0EE16_M_main_dispatchENSH_11_Match_modeESt17integral_constantIbLb0EE.constprop.538+0x763>
 443:	48 8d 72 18          	lea    0x18(%rdx),%rsi
 447:	48 29 f1             	sub    %rsi,%rcx
 44a:	48 c1 e9 03          	shr    $0x3,%rcx
 44e:	48 8d 74 c8 18       	lea    0x18(%rax,%rcx,8),%rsi
 453:	0f 1f 44 00 00       	nopl   0x0(%rax,%rax,1)
 458:	48 85 c0             	test   %rax,%rax
 45b:	0f 84 7a 06 00 00    	je     adb <_ZNSt8__detail9_ExecutorIN9__gnu_cxx17__normal_iteratorIPKcNSt7__cxx1112basic_stringIcSt11char_traitsIcESaIcEEEEESaINS5_9sub_matchISB_EEENS5_12regex_traitsIcEELb0EE16_M_main_dispatchENSH_11_Match_modeESt17integral_constantIbLb0EE.constprop.538+0x76b>
 461:	f3 0f 6f 02          	movdqu (%rdx),%xmm0
 465:	48 83 c0 18          	add    $0x18,%rax
 469:	48 83 c2 18          	add    $0x18,%rdx
 46d:	0f 11 40 e8          	movups %xmm0,-0x18(%rax)
 471:	48 8b 4a f8          	mov    -0x8(%rdx),%rcx
 475:	48 89 48 f8          	mov    %rcx,-0x8(%rax)
 479:	48 39 f0             	cmp    %rsi,%rax
 47c:	75 da                	jne    458 <_ZNSt8__detail9_ExecutorIN9__gnu_cxx17__normal_iteratorIPKcNSt7__cxx1112basic_stringIcSt11char_traitsIcESaIcEEEEESaINS5_9sub_matchISB_EEENS5_12regex_traitsIcEELb0EE16_M_main_dispatchENSH_11_Match_modeESt17integral_constantIbLb0EE.constprop.538+0xe8>
 47e:	49 89 75 10          	mov    %rsi,0x10(%r13)
 482:	49 89 fd             	mov    %rdi,%r13
 485:	49 83 c5 20          	add    $0x20,%r13
 489:	4c 89 6b 68          	mov    %r13,0x68(%rbx)
 48d:	48 8b 6b 60          	mov    0x60(%rbx),%rbp
 491:	c6 83 8c 00 00 00 00 	movb   $0x0,0x8c(%rbx)
 498:	4c 39 ed             	cmp    %r13,%rbp
 49b:	0f 84 25 06 00 00    	je     ac6 <_ZNSt8__detail9_ExecutorIN9__gnu_cxx17__normal_iteratorIPKcNSt7__cxx1112basic_stringIcSt11char_traitsIcESaIcEEEEESaINS5_9sub_matchISB_EEENS5_12regex_traitsIcEELb0EE16_M_main_dispatchENSH_11_Match_modeESt17integral_constantIbLb0EE.constprop.538+0x756>
 4a1:	4c 8d 3d 00 00 00 00 	lea    0x0(%rip),%r15        # 4a8 <_ZNSt8__detail9_ExecutorIN9__gnu_cxx17__normal_iteratorIPKcNSt7__cxx1112basic_stringIcSt11char_traitsIcESaIcEEEEESaINS5_9sub_matchISB_EEENS5_12regex_traitsIcEELb0EE16_M_main_dispatchENSH_11_Match_modeESt17integral_constantIbLb0EE.constprop.538+0x138>
 4a8:	c6 44 24 26 00       	movb   $0x0,0x26(%rsp)
 4ad:	0f 1f 00             	nopl   (%rax)
 4b0:	48 8b 43 38          	mov    0x38(%rbx),%rax
 4b4:	48 8b 7b 78          	mov    0x78(%rbx),%rdi
 4b8:	48 8b 50 40          	mov    0x40(%rax),%rdx
 4bc:	48 2b 50 38          	sub    0x38(%rax),%rdx
 4c0:	48 b8 ab aa aa aa aa 	movabs $0xaaaaaaaaaaaaaaab,%rax
 4c7:	aa aa aa 
 4ca:	48 c1 fa 04          	sar    $0x4,%rdx
 4ce:	48 0f af d0          	imul   %rax,%rdx
 4d2:	48 85 d2             	test   %rdx,%rdx
 4d5:	74 07                	je     4de <_ZNSt8__detail9_ExecutorIN9__gnu_cxx17__normal_iteratorIPKcNSt7__cxx1112basic_stringIcSt11char_traitsIcESaIcEEEEESaINS5_9sub_matchISB_EEENS5_12regex_traitsIcEELb0EE16_M_main_dispatchENSH_11_Match_modeESt17integral_constantIbLb0EE.constprop.538+0x16e>
 4d7:	31 f6                	xor    %esi,%esi
 4d9:	e8 00 00 00 00       	callq  4de <_ZNSt8__detail9_ExecutorIN9__gnu_cxx17__normal_iteratorIPKcNSt7__cxx1112basic_stringIcSt11char_traitsIcESaIcEEEEESaINS5_9sub_matchISB_EEENS5_12regex_traitsIcEELb0EE16_M_main_dispatchENSH_11_Match_modeESt17integral_constantIbLb0EE.constprop.538+0x16e>
 4de:	48 8b 43 70          	mov    0x70(%rbx),%rax
 4e2:	48 89 6c 24 50       	mov    %rbp,0x50(%rsp)
 4e7:	48 83 c5 20          	add    $0x20,%rbp
 4eb:	48 c7 43 60 00 00 00 	movq   $0x0,0x60(%rbx)
 4f2:	00 
 4f3:	4c 89 6c 24 58       	mov    %r13,0x58(%rsp)
 4f8:	48 c7 43 68 00 00 00 	movq   $0x0,0x68(%rbx)
 4ff:	00 
 500:	48 c7 43 70 00 00 00 	movq   $0x0,0x70(%rbx)
 507:	00 
 508:	48 89 44 24 60       	mov    %rax,0x60(%rsp)
 50d:	48 8d 44 24 3f       	lea    0x3f(%rsp),%rax
 512:	48 89 04 24          	mov    %rax,(%rsp)
 516:	48 8d 44 24 48       	lea    0x48(%rsp),%rax
 51b:	48 89 44 24 08       	mov    %rax,0x8(%rsp)
 520:	48 c7 43 08 00 00 00 	movq   $0x0,0x8(%rbx)
 527:	00 
 528:	48 c7 43 10 00 00 00 	movq   $0x0,0x10(%rbx)
 52f:	00 
 530:	48 8b 3b             	mov    (%rbx),%rdi
 533:	48 c7 03 00 00 00 00 	movq   $0x0,(%rbx)
 53a:	48 8b 45 e8          	mov    -0x18(%rbp),%rax
 53e:	48 85 ff             	test   %rdi,%rdi
 541:	48 89 03             	mov    %rax,(%rbx)
 544:	48 c7 45 e8 00 00 00 	movq   $0x0,-0x18(%rbp)
 54b:	00 
 54c:	48 8b 55 f0          	mov    -0x10(%rbp),%rdx
 550:	48 8b 43 08          	mov    0x8(%rbx),%rax
 554:	48 89 53 08          	mov    %rdx,0x8(%rbx)
 558:	48 89 45 f0          	mov    %rax,-0x10(%rbp)
 55c:	48 8b 55 f8          	mov    -0x8(%rbp),%rdx
 560:	48 8b 43 10          	mov    0x10(%rbx),%rax
 564:	48 89 53 10          	mov    %rdx,0x10(%rbx)
 568:	48 89 45 f8          	mov    %rax,-0x8(%rbp)
 56c:	74 05                	je     573 <_ZNSt8__detail9_ExecutorIN9__gnu_cxx17__normal_iteratorIPKcNSt7__cxx1112basic_stringIcSt11char_traitsIcESaIcEEEEESaINS5_9sub_matchISB_EEENS5_12regex_traitsIcEELb0EE16_M_main_dispatchENSH_11_Match_modeESt17integral_constantIbLb0EE.constprop.538+0x203>
 56e:	e8 00 00 00 00       	callq  573 <_ZNSt8__detail9_ExecutorIN9__gnu_cxx17__normal_iteratorIPKcNSt7__cxx1112basic_stringIcSt11char_traitsIcESaIcEEEEESaINS5_9sub_matchISB_EEENS5_12regex_traitsIcEELb0EE16_M_main_dispatchENSH_11_Match_modeESt17integral_constantIbLb0EE.constprop.538+0x203>
 573:	48 8b 55 e0          	mov    -0x20(%rbp),%rdx
 577:	48 8b 43 78          	mov    0x78(%rbx),%rax
 57b:	48 01 d0             	add    %rdx,%rax
 57e:	44 0f b6 30          	movzbl (%rax),%r14d
 582:	45 84 f6             	test   %r14b,%r14b
 585:	75 49                	jne    5d0 <_ZNSt8__detail9_ExecutorIN9__gnu_cxx17__normal_iteratorIPKcNSt7__cxx1112basic_stringIcSt11char_traitsIcESaIcEEEEESaINS5_9sub_matchISB_EEENS5_12regex_traitsIcEELb0EE16_M_main_dispatchENSH_11_Match_modeESt17integral_constantIbLb0EE.constprop.538+0x260>
 587:	c6 00 01             	movb   $0x1,(%rax)
 58a:	48 8b 43 38          	mov    0x38(%rbx),%rax
 58e:	4c 8d 24 52          	lea    (%rdx,%rdx,2),%r12
 592:	49 c1 e4 04          	shl    $0x4,%r12
 596:	4c 03 60 38          	add    0x38(%rax),%r12
 59a:	41 83 3c 24 0c       	cmpl   $0xc,(%r12)
 59f:	77 2f                	ja     5d0 <_ZNSt8__detail9_ExecutorIN9__gnu_cxx17__normal_iteratorIPKcNSt7__cxx1112basic_stringIcSt11char_traitsIcESaIcEEEEESaINS5_9sub_matchISB_EEENS5_12regex_traitsIcEELb0EE16_M_main_dispatchENSH_11_Match_modeESt17integral_constantIbLb0EE.constprop.538+0x260>
 5a1:	41 8b 04 24          	mov    (%r12),%eax
 5a5:	49 63 04 87          	movslq (%r15,%rax,4),%rax
 5a9:	4c 01 f8             	add    %r15,%rax
 5ac:	ff e0                	jmpq   *%rax
 5ae:	66 90                	xchg   %ax,%ax
 5b0:	48 8b 43 20          	mov    0x20(%rbx),%rax
 5b4:	48 39 43 18          	cmp    %rax,0x18(%rbx)
 5b8:	0f 84 aa 04 00 00    	je     a68 <_ZNSt8__detail9_ExecutorIN9__gnu_cxx17__normal_iteratorIPKcNSt7__cxx1112basic_stringIcSt11char_traitsIcESaIcEEEEESaINS5_9sub_matchISB_EEENS5_12regex_traitsIcEELb0EE16_M_main_dispatchENSH_11_Match_modeESt17integral_constantIbLb0EE.constprop.538+0x6f8>
 5be:	80 bb 8c 00 00 00 00 	cmpb   $0x0,0x8c(%rbx)
 5c5:	0f 84 3d 04 00 00    	je     a08 <_ZNSt8__detail9_ExecutorIN9__gnu_cxx17__normal_iteratorIPKcNSt7__cxx1112basic_stringIcSt11char_traitsIcESaIcEEEEESaINS5_9sub_matchISB_EEENS5_12regex_traitsIcEELb0EE16_M_main_dispatchENSH_11_Match_modeESt17integral_constantIbLb0EE.constprop.538+0x698>
 5cb:	0f 1f 44 00 00       	nopl   0x0(%rax,%rax,1)
 5d0:	4c 39 ed             	cmp    %r13,%rbp
 5d3:	74 7b                	je     650 <_ZNSt8__detail9_ExecutorIN9__gnu_cxx17__normal_iteratorIPKcNSt7__cxx1112basic_stringIcSt11char_traitsIcESaIcEEEEESaINS5_9sub_matchISB_EEENS5_12regex_traitsIcEELb0EE16_M_main_dispatchENSH_11_Match_modeESt17integral_constantIbLb0EE.constprop.538+0x2e0>
 5d5:	48 83 c5 20          	add    $0x20,%rbp
 5d9:	e9 42 ff ff ff       	jmpq   520 <_ZNSt8__detail9_ExecutorIN9__gnu_cxx17__normal_iteratorIPKcNSt7__cxx1112basic_stringIcSt11char_traitsIcESaIcEEEEESaINS5_9sub_matchISB_EEENS5_12regex_traitsIcEELb0EE16_M_main_dispatchENSH_11_Match_modeESt17integral_constantIbLb0EE.constprop.538+0x1b0>
 5de:	66 90                	xchg   %ax,%ax
 5e0:	48 8b 43 18          	mov    0x18(%rbx),%rax
 5e4:	48 3b 43 28          	cmp    0x28(%rbx),%rax
 5e8:	0f 84 15 03 00 00    	je     903 <_ZNSt8__detail9_ExecutorIN9__gnu_cxx17__normal_iteratorIPKcNSt7__cxx1112basic_stringIcSt11char_traitsIcESaIcEEEEESaINS5_9sub_matchISB_EEENS5_12regex_traitsIcEELb0EE16_M_main_dispatchENSH_11_Match_modeESt17integral_constantIbLb0EE.constprop.538+0x593>
 5ee:	0f b6 00             	movzbl (%rax),%eax
 5f1:	49 83 7c 24 20 00    	cmpq   $0x0,0x20(%r12)
 5f7:	88 44 24 3f          	mov    %al,0x3f(%rsp)
 5fb:	0f 84 07 05 00 00    	je     b08 <_ZNSt8__detail9_ExecutorIN9__gnu_cxx17__normal_iteratorIPKcNSt7__cxx1112basic_stringIcSt11char_traitsIcESaIcEEEEESaINS5_9sub_matchISB_EEENS5_12regex_traitsIcEELb0EE16_M_main_dispatchENSH_11_Match_modeESt17integral_constantIbLb0EE.constprop.538+0x798>
 601:	49 8d 7c 24 10       	lea    0x10(%r12),%rdi
 606:	48 8b 34 24          	mov    (%rsp),%rsi
 60a:	41 ff 54 24 28       	callq  *0x28(%r12)
 60f:	84 c0                	test   %al,%al
 611:	74 bd                	je     5d0 <_ZNSt8__detail9_ExecutorIN9__gnu_cxx17__normal_iteratorIPKcNSt7__cxx1112basic_stringIcSt11char_traitsIcESaIcEEEEESaINS5_9sub_matchISB_EEENS5_12regex_traitsIcEELb0EE16_M_main_dispatchENSH_11_Match_modeESt17integral_constantIbLb0EE.constprop.538+0x260>
 613:	48 8b 73 68          	mov    0x68(%rbx),%rsi
 617:	48 3b 73 70          	cmp    0x70(%rbx),%rsi
 61b:	49 8b 44 24 08       	mov    0x8(%r12),%rax
 620:	48 89 44 24 48       	mov    %rax,0x48(%rsp)
 625:	0f 84 84 04 00 00    	je     aaf <_ZNSt8__detail9_ExecutorIN9__gnu_cxx17__normal_iteratorIPKcNSt7__cxx1112basic_stringIcSt11char_traitsIcESaIcEEEEESaINS5_9sub_matchISB_EEENS5_12regex_traitsIcEELb0EE16_M_main_dispatchENSH_11_Match_modeESt17integral_constantIbLb0EE.constprop.538+0x73f>
 62b:	48 85 f6             	test   %rsi,%rsi
 62e:	74 13                	je     643 <_ZNSt8__detail9_ExecutorIN9__gnu_cxx17__normal_iteratorIPKcNSt7__cxx1112basic_stringIcSt11char_traitsIcESaIcEEEEESaINS5_9sub_matchISB_EEENS5_12regex_traitsIcEELb0EE16_M_main_dispatchENSH_11_Match_modeESt17integral_constantIbLb0EE.constprop.538+0x2d3>
 630:	48 8d 7e 08          	lea    0x8(%rsi),%rdi
 634:	48 89 06             	mov    %rax,(%rsi)
 637:	48 89 de             	mov    %rbx,%rsi
 63a:	e8 00 00 00 00       	callq  63f <_ZNSt8__detail9_ExecutorIN9__gnu_cxx17__normal_iteratorIPKcNSt7__cxx1112basic_stringIcSt11char_traitsIcESaIcEEEEESaINS5_9sub_matchISB_EEENS5_12regex_traitsIcEELb0EE16_M_main_dispatchENSH_11_Match_modeESt17integral_constantIbLb0EE.constprop.538+0x2cf>
 63f:	48 8b 73 68          	mov    0x68(%rbx),%rsi
 643:	48 83 c6 20          	add    $0x20,%rsi
 647:	4c 39 ed             	cmp    %r13,%rbp
 64a:	48 89 73 68          	mov    %rsi,0x68(%rbx)
 64e:	75 85                	jne    5d5 <_ZNSt8__detail9_ExecutorIN9__gnu_cxx17__normal_iteratorIPKcNSt7__cxx1112basic_stringIcSt11char_traitsIcESaIcEEEEESaINS5_9sub_matchISB_EEENS5_12regex_traitsIcEELb0EE16_M_main_dispatchENSH_11_Match_modeESt17integral_constantIbLb0EE.constprop.538+0x265>
 650:	0f b6 83 8c 00 00 00 	movzbl 0x8c(%rbx),%eax
 657:	48 8b 6c 24 58       	mov    0x58(%rsp),%rbp
 65c:	08 44 24 26          	or     %al,0x26(%rsp)
 660:	48 8b 43 18          	mov    0x18(%rbx),%rax
 664:	48 3b 43 28          	cmp    0x28(%rbx),%rax
 668:	4c 8b 64 24 50       	mov    0x50(%rsp),%r12
 66d:	0f 84 ae 02 00 00    	je     921 <_ZNSt8__detail9_ExecutorIN9__gnu_cxx17__normal_iteratorIPKcNSt7__cxx1112basic_stringIcSt11char_traitsIcESaIcEEEEESaINS5_9sub_matchISB_EEENS5_12regex_traitsIcEELb0EE16_M_main_dispatchENSH_11_Match_modeESt17integral_constantIbLb0EE.constprop.538+0x5b1>
 673:	48 83 c0 01          	add    $0x1,%rax
 677:	4c 39 e5             	cmp    %r12,%rbp
 67a:	48 89 43 18          	mov    %rax,0x18(%rbx)
 67e:	74 21                	je     6a1 <_ZNSt8__detail9_ExecutorIN9__gnu_cxx17__normal_iteratorIPKcNSt7__cxx1112basic_stringIcSt11char_traitsIcESaIcEEEEESaINS5_9sub_matchISB_EEENS5_12regex_traitsIcEELb0EE16_M_main_dispatchENSH_11_Match_modeESt17integral_constantIbLb0EE.constprop.538+0x331>
 680:	49 8b 7c 24 08       	mov    0x8(%r12),%rdi
 685:	48 85 ff             	test   %rdi,%rdi
 688:	0f 84 42 03 00 00    	je     9d0 <_ZNSt8__detail9_ExecutorIN9__gnu_cxx17__normal_iteratorIPKcNSt7__cxx1112basic_stringIcSt11char_traitsIcESaIcEEEEESaINS5_9sub_matchISB_EEENS5_12regex_traitsIcEELb0EE16_M_main_dispatchENSH_11_Match_modeESt17integral_constantIbLb0EE.constprop.538+0x660>
 68e:	49 83 c4 20          	add    $0x20,%r12
 692:	e8 00 00 00 00       	callq  697 <_ZNSt8__detail9_ExecutorIN9__gnu_cxx17__normal_iteratorIPKcNSt7__cxx1112basic_stringIcSt11char_traitsIcESaIcEEEEESaINS5_9sub_matchISB_EEENS5_12regex_traitsIcEELb0EE16_M_main_dispatchENSH_11_Match_modeESt17integral_constantIbLb0EE.constprop.538+0x327>
 697:	49 39 ec             	cmp    %rbp,%r12
 69a:	75 e4                	jne    680 <_ZNSt8__detail9_ExecutorIN9__gnu_cxx17__normal_iteratorIPKcNSt7__cxx1112basic_stringIcSt11char_traitsIcESaIcEEEEESaINS5_9sub_matchISB_EEENS5_12regex_traitsIcEELb0EE16_M_main_dispatchENSH_11_Match_modeESt17integral_constantIbLb0EE.constprop.538+0x310>
 69c:	4c 8b 64 24 50       	mov    0x50(%rsp),%r12
 6a1:	4d 85 e4             	test   %r12,%r12
 6a4:	0f 84 3e 03 00 00    	je     9e8 <_ZNSt8__detail9_ExecutorIN9__gnu_cxx17__normal_iteratorIPKcNSt7__cxx1112basic_stringIcSt11char_traitsIcESaIcEEEEESaINS5_9sub_matchISB_EEENS5_12regex_traitsIcEELb0EE16_M_main_dispatchENSH_11_Match_modeESt17integral_constantIbLb0EE.constprop.538+0x678>
 6aa:	4c 89 e7             	mov    %r12,%rdi
 6ad:	e8 00 00 00 00       	callq  6b2 <_ZNSt8__detail9_ExecutorIN9__gnu_cxx17__normal_iteratorIPKcNSt7__cxx1112basic_stringIcSt11char_traitsIcESaIcEEEEESaINS5_9sub_matchISB_EEENS5_12regex_traitsIcEELb0EE16_M_main_dispatchENSH_11_Match_modeESt17integral_constantIbLb0EE.constprop.538+0x342>
 6b2:	4c 8b 6b 68          	mov    0x68(%rbx),%r13
 6b6:	48 8b 6b 60          	mov    0x60(%rbx),%rbp
 6ba:	c6 83 8c 00 00 00 00 	movb   $0x0,0x8c(%rbx)
 6c1:	4c 39 ed             	cmp    %r13,%rbp
 6c4:	0f 85 e6 fd ff ff    	jne    4b0 <_ZNSt8__detail9_ExecutorIN9__gnu_cxx17__normal_iteratorIPKcNSt7__cxx1112basic_stringIcSt11char_traitsIcESaIcEEEEESaINS5_9sub_matchISB_EEENS5_12regex_traitsIcEELb0EE16_M_main_dispatchENSH_11_Match_modeESt17integral_constantIbLb0EE.constprop.538+0x140>
 6ca:	66 0f 1f 44 00 00    	nopw   0x0(%rax,%rax,1)
 6d0:	48 8b 4c 24 68       	mov    0x68(%rsp),%rcx
 6d5:	64 48 33 0c 25 28 00 	xor    %fs:0x28,%rcx
 6dc:	00 00 
 6de:	48 89 6b 68          	mov    %rbp,0x68(%rbx)
 6e2:	0f b6 44 24 26       	movzbl 0x26(%rsp),%eax
 6e7:	0f 85 25 04 00 00    	jne    b12 <_ZNSt8__detail9_ExecutorIN9__gnu_cxx17__normal_iteratorIPKcNSt7__cxx1112basic_stringIcSt11char_traitsIcESaIcEEEEESaINS5_9sub_matchISB_EEENS5_12regex_traitsIcEELb0EE16_M_main_dispatchENSH_11_Match_modeESt17integral_constantIbLb0EE.constprop.538+0x7a2>
 6ed:	48 83 c4 78          	add    $0x78,%rsp
 6f1:	5b                   	pop    %rbx
 6f2:	5d                   	pop    %rbp
 6f3:	41 5c                	pop    %r12
 6f5:	41 5d                	pop    %r13
 6f7:	41 5e                	pop    %r14
 6f9:	41 5f                	pop    %r15
 6fb:	c3                   	retq   
 6fc:	0f 1f 40 00          	nopl   0x0(%rax)
 700:	49 8b 44 24 10       	mov    0x10(%r12),%rax
 705:	48 89 df             	mov    %rbx,%rdi
 708:	48 8d 14 40          	lea    (%rax,%rax,2),%rdx
 70c:	48 8b 03             	mov    (%rbx),%rax
 70f:	4c 8d 34 d0          	lea    (%rax,%rdx,8),%r14
 713:	49 8b 06             	mov    (%r14),%rax
 716:	41 0f b6 76 10       	movzbl 0x10(%r14),%esi
 71b:	49 8b 4e 08          	mov    0x8(%r14),%rcx
 71f:	48 89 44 24 10       	mov    %rax,0x10(%rsp)
 724:	48 8b 43 18          	mov    0x18(%rbx),%rax
 728:	41 c6 46 10 01       	movb   $0x1,0x10(%r14)
 72d:	40 88 74 24 27       	mov    %sil,0x27(%rsp)
 732:	be 01 00 00 00       	mov    $0x1,%esi
 737:	48 89 4c 24 18       	mov    %rcx,0x18(%rsp)
 73c:	49 89 46 08          	mov    %rax,0x8(%r14)
 740:	49 8b 54 24 08       	mov    0x8(%r12),%rdx
 745:	e8 00 00 00 00       	callq  74a <_ZNSt8__detail9_ExecutorIN9__gnu_cxx17__normal_iteratorIPKcNSt7__cxx1112basic_stringIcSt11char_traitsIcESaIcEEEEESaINS5_9sub_matchISB_EEENS5_12regex_traitsIcEELb0EE16_M_main_dispatchENSH_11_Match_modeESt17integral_constantIbLb0EE.constprop.538+0x3da>
 74a:	0f b6 74 24 27       	movzbl 0x27(%rsp),%esi
 74f:	48 8b 44 24 10       	mov    0x10(%rsp),%rax
 754:	48 8b 4c 24 18       	mov    0x18(%rsp),%rcx
 759:	49 89 06             	mov    %rax,(%r14)
 75c:	49 89 4e 08          	mov    %rcx,0x8(%r14)
 760:	41 88 76 10          	mov    %sil,0x10(%r14)
 764:	e9 67 fe ff ff       	jmpq   5d0 <_ZNSt8__detail9_ExecutorIN9__gnu_cxx17__normal_iteratorIPKcNSt7__cxx1112basic_stringIcSt11char_traitsIcESaIcEEEEESaINS5_9sub_matchISB_EEENS5_12regex_traitsIcEELb0EE16_M_main_dispatchENSH_11_Match_modeESt17integral_constantIbLb0EE.constprop.538+0x260>
 769:	0f 1f 80 00 00 00 00 	nopl   0x0(%rax)
 770:	49 8b 44 24 10       	mov    0x10(%r12),%rax
 775:	be 01 00 00 00       	mov    $0x1,%esi
 77a:	48 89 df             	mov    %rbx,%rdi
 77d:	48 8d 14 40          	lea    (%rax,%rax,2),%rdx
 781:	48 8b 03             	mov    (%rbx),%rax
 784:	4c 8d 34 d0          	lea    (%rax,%rdx,8),%r14
 788:	49 8b 06             	mov    (%r14),%rax
 78b:	48 89 44 24 10       	mov    %rax,0x10(%rsp)
 790:	48 8b 43 18          	mov    0x18(%rbx),%rax
 794:	49 89 06             	mov    %rax,(%r14)
 797:	49 8b 54 24 08       	mov    0x8(%r12),%rdx
 79c:	e8 00 00 00 00       	callq  7a1 <_ZNSt8__detail9_ExecutorIN9__gnu_cxx17__normal_iteratorIPKcNSt7__cxx1112basic_stringIcSt11char_traitsIcESaIcEEEEESaINS5_9sub_matchISB_EEENS5_12regex_traitsIcEELb0EE16_M_main_dispatchENSH_11_Match_modeESt17integral_constantIbLb0EE.constprop.538+0x431>
 7a1:	48 8b 44 24 10       	mov    0x10(%rsp),%rax
 7a6:	49 89 06             	mov    %rax,(%r14)
 7a9:	e9 22 fe ff ff       	jmpq   5d0 <_ZNSt8__detail9_ExecutorIN9__gnu_cxx17__normal_iteratorIPKcNSt7__cxx1112basic_stringIcSt11char_traitsIcESaIcEEEEESaINS5_9sub_matchISB_EEENS5_12regex_traitsIcEELb0EE16_M_main_dispatchENSH_11_Match_modeESt17integral_constantIbLb0EE.constprop.538+0x260>
 7ae:	66 90                	xchg   %ax,%ax
 7b0:	49 8b 74 24 10       	mov    0x10(%r12),%rsi
 7b5:	48 89 df             	mov    %rbx,%rdi
 7b8:	e8 00 00 00 00       	callq  7bd <_ZNSt8__detail9_ExecutorIN9__gnu_cxx17__normal_iteratorIPKcNSt7__cxx1112basic_stringIcSt11char_traitsIcESaIcEEEEESaINS5_9sub_matchISB_EEENS5_12regex_traitsIcEELb0EE16_M_main_dispatchENSH_11_Match_modeESt17integral_constantIbLb0EE.constprop.538+0x44d>
 7bd:	41 0f b6 54 24 18    	movzbl 0x18(%r12),%edx
 7c3:	83 f2 01             	xor    $0x1,%edx
 7c6:	38 d0                	cmp    %dl,%al
 7c8:	0f 85 02 fe ff ff    	jne    5d0 <_ZNSt8__detail9_ExecutorIN9__gnu_cxx17__normal_iteratorIPKcNSt7__cxx1112basic_stringIcSt11char_traitsIcESaIcEEEEESaINS5_9sub_matchISB_EEENS5_12regex_traitsIcEELb0EE16_M_main_dispatchENSH_11_Match_modeESt17integral_constantIbLb0EE.constprop.538+0x260>
 7ce:	49 8b 54 24 08       	mov    0x8(%r12),%rdx
 7d3:	be 01 00 00 00       	mov    $0x1,%esi
 7d8:	48 89 df             	mov    %rbx,%rdi
 7db:	e8 00 00 00 00       	callq  7e0 <_ZNSt8__detail9_ExecutorIN9__gnu_cxx17__normal_iteratorIPKcNSt7__cxx1112basic_stringIcSt11char_traitsIcESaIcEEEEESaINS5_9sub_matchISB_EEENS5_12regex_traitsIcEELb0EE16_M_main_dispatchENSH_11_Match_modeESt17integral_constantIbLb0EE.constprop.538+0x470>
 7e0:	e9 eb fd ff ff       	jmpq   5d0 <_ZNSt8__detail9_ExecutorIN9__gnu_cxx17__normal_iteratorIPKcNSt7__cxx1112basic_stringIcSt11char_traitsIcESaIcEEEEESaINS5_9sub_matchISB_EEENS5_12regex_traitsIcEELb0EE16_M_main_dispatchENSH_11_Match_modeESt17integral_constantIbLb0EE.constprop.538+0x260>
 7e5:	0f 1f 00             	nopl   (%rax)
 7e8:	48 8b 43 18          	mov    0x18(%rbx),%rax
 7ec:	48 3b 43 20          	cmp    0x20(%rbx),%rax
 7f0:	0f 84 42 02 00 00    	je     a38 <_ZNSt8__detail9_ExecutorIN9__gnu_cxx17__normal_iteratorIPKcNSt7__cxx1112basic_stringIcSt11char_traitsIcESaIcEEEEESaINS5_9sub_matchISB_EEENS5_12regex_traitsIcEELb0EE16_M_main_dispatchENSH_11_Match_modeESt17integral_constantIbLb0EE.constprop.538+0x6c8>
 7f6:	48 3b 43 28          	cmp    0x28(%rbx),%rax
 7fa:	0f 84 20 02 00 00    	je     a20 <_ZNSt8__detail9_ExecutorIN9__gnu_cxx17__normal_iteratorIPKcNSt7__cxx1112basic_stringIcSt11char_traitsIcESaIcEEEEESaINS5_9sub_matchISB_EEENS5_12regex_traitsIcEELb0EE16_M_main_dispatchENSH_11_Match_modeESt17integral_constantIbLb0EE.constprop.538+0x6b0>
 800:	0f be 40 ff          	movsbl -0x1(%rax),%eax
 804:	48 8d 15 00 00 00 00 	lea    0x0(%rip),%rdx        # 80b <_ZNSt8__detail9_ExecutorIN9__gnu_cxx17__normal_iteratorIPKcNSt7__cxx1112basic_stringIcSt11char_traitsIcESaIcEEEEESaINS5_9sub_matchISB_EEENS5_12regex_traitsIcEELb0EE16_M_main_dispatchENSH_11_Match_modeESt17integral_constantIbLb0EE.constprop.538+0x49b>
 80b:	31 c9                	xor    %ecx,%ecx
 80d:	48 8d 72 ff          	lea    -0x1(%rdx),%rsi
 811:	89 44 24 10          	mov    %eax,0x10(%rsp)
 815:	48 8b 43 30          	mov    0x30(%rbx),%rax
 819:	4c 8b 70 10          	mov    0x10(%rax),%r14
 81d:	49 83 c6 50          	add    $0x50,%r14
 821:	4c 89 f7             	mov    %r14,%rdi
 824:	e8 00 00 00 00       	callq  829 <_ZNSt8__detail9_ExecutorIN9__gnu_cxx17__normal_iteratorIPKcNSt7__cxx1112basic_stringIcSt11char_traitsIcESaIcEEEEESaINS5_9sub_matchISB_EEENS5_12regex_traitsIcEELb0EE16_M_main_dispatchENSH_11_Match_modeESt17integral_constantIbLb0EE.constprop.538+0x4b9>
 829:	8b 74 24 10          	mov    0x10(%rsp),%esi
 82d:	89 c2                	mov    %eax,%edx
 82f:	4c 89 f7             	mov    %r14,%rdi
 832:	e8 00 00 00 00       	callq  837 <_ZNSt8__detail9_ExecutorIN9__gnu_cxx17__normal_iteratorIPKcNSt7__cxx1112basic_stringIcSt11char_traitsIcESaIcEEEEESaINS5_9sub_matchISB_EEENS5_12regex_traitsIcEELb0EE16_M_main_dispatchENSH_11_Match_modeESt17integral_constantIbLb0EE.constprop.538+0x4c7>
 837:	41 89 c6             	mov    %eax,%r14d
 83a:	48 8b 53 28          	mov    0x28(%rbx),%rdx
 83e:	48 8b 43 18          	mov    0x18(%rbx),%rax
 842:	48 39 d0             	cmp    %rdx,%rax
 845:	74 40                	je     887 <_ZNSt8__detail9_ExecutorIN9__gnu_cxx17__normal_iteratorIPKcNSt7__cxx1112basic_stringIcSt11char_traitsIcESaIcEEEEESaINS5_9sub_matchISB_EEENS5_12regex_traitsIcEELb0EE16_M_main_dispatchENSH_11_Match_modeESt17integral_constantIbLb0EE.constprop.538+0x517>
 847:	0f be 00             	movsbl (%rax),%eax
 84a:	48 8d 15 00 00 00 00 	lea    0x0(%rip),%rdx        # 851 <_ZNSt8__detail9_ExecutorIN9__gnu_cxx17__normal_iteratorIPKcNSt7__cxx1112basic_stringIcSt11char_traitsIcESaIcEEEEESaINS5_9sub_matchISB_EEENS5_12regex_traitsIcEELb0EE16_M_main_dispatchENSH_11_Match_modeESt17integral_constantIbLb0EE.constprop.538+0x4e1>
 851:	31 c9                	xor    %ecx,%ecx
 853:	48 8d 72 ff          	lea    -0x1(%rdx),%rsi
 857:	89 44 24 10          	mov    %eax,0x10(%rsp)
 85b:	48 8b 43 30          	mov    0x30(%rbx),%rax
 85f:	48 8b 40 10          	mov    0x10(%rax),%rax
 863:	48 83 c0 50          	add    $0x50,%rax
 867:	48 89 c7             	mov    %rax,%rdi
 86a:	48 89 44 24 18       	mov    %rax,0x18(%rsp)
 86f:	e8 00 00 00 00       	callq  874 <_ZNSt8__detail9_ExecutorIN9__gnu_cxx17__normal_iteratorIPKcNSt7__cxx1112basic_stringIcSt11char_traitsIcESaIcEEEEESaINS5_9sub_matchISB_EEENS5_12regex_traitsIcEELb0EE16_M_main_dispatchENSH_11_Match_modeESt17integral_constantIbLb0EE.constprop.538+0x504>
 874:	8b 74 24 10          	mov    0x10(%rsp),%esi
 878:	48 8b 7c 24 18       	mov    0x18(%rsp),%rdi
 87d:	89 c2                	mov    %eax,%edx
 87f:	e8 00 00 00 00       	callq  884 <_ZNSt8__detail9_ExecutorIN9__gnu_cxx17__normal_iteratorIPKcNSt7__cxx1112basic_stringIcSt11char_traitsIcESaIcEEEEESaINS5_9sub_matchISB_EEENS5_12regex_traitsIcEELb0EE16_M_main_dispatchENSH_11_Match_modeESt17integral_constantIbLb0EE.constprop.538+0x514>
 884:	41 31 c6             	xor    %eax,%r14d
 887:	41 0f b6 44 24 18    	movzbl 0x18(%r12),%eax
 88d:	83 f0 01             	xor    $0x1,%eax
 890:	44 38 f0             	cmp    %r14b,%al
 893:	0f 85 37 fd ff ff    	jne    5d0 <_ZNSt8__detail9_ExecutorIN9__gnu_cxx17__normal_iteratorIPKcNSt7__cxx1112basic_stringIcSt11char_traitsIcESaIcEEEEESaINS5_9sub_matchISB_EEENS5_12regex_traitsIcEELb0EE16_M_main_dispatchENSH_11_Match_modeESt17integral_constantIbLb0EE.constprop.538+0x260>
 899:	e9 30 ff ff ff       	jmpq   7ce <_ZNSt8__detail9_ExecutorIN9__gnu_cxx17__normal_iteratorIPKcNSt7__cxx1112basic_stringIcSt11char_traitsIcESaIcEEEEESaINS5_9sub_matchISB_EEENS5_12regex_traitsIcEELb0EE16_M_main_dispatchENSH_11_Match_modeESt17integral_constantIbLb0EE.constprop.538+0x45e>
 89e:	66 90                	xchg   %ax,%ax
 8a0:	be 01 00 00 00       	mov    $0x1,%esi
 8a5:	48 89 df             	mov    %rbx,%rdi
 8a8:	e8 00 00 00 00       	callq  8ad <_ZNSt8__detail9_ExecutorIN9__gnu_cxx17__normal_iteratorIPKcNSt7__cxx1112basic_stringIcSt11char_traitsIcESaIcEEEEESaINS5_9sub_matchISB_EEENS5_12regex_traitsIcEELb0EE16_M_main_dispatchENSH_11_Match_modeESt17integral_constantIbLb0EE.constprop.538+0x53d>
 8ad:	e9 1e fd ff ff       	jmpq   5d0 <_ZNSt8__detail9_ExecutorIN9__gnu_cxx17__normal_iteratorIPKcNSt7__cxx1112basic_stringIcSt11char_traitsIcESaIcEEEEESaINS5_9sub_matchISB_EEENS5_12regex_traitsIcEELb0EE16_M_main_dispatchENSH_11_Match_modeESt17integral_constantIbLb0EE.constprop.538+0x260>
 8b2:	66 0f 1f 44 00 00    	nopw   0x0(%rax,%rax,1)
 8b8:	be 01 00 00 00       	mov    $0x1,%esi
 8bd:	48 89 df             	mov    %rbx,%rdi
 8c0:	e8 00 00 00 00       	callq  8c5 <_ZNSt8__detail9_ExecutorIN9__gnu_cxx17__normal_iteratorIPKcNSt7__cxx1112basic_stringIcSt11char_traitsIcESaIcEEEEESaINS5_9sub_matchISB_EEENS5_12regex_traitsIcEELb0EE16_M_main_dispatchENSH_11_Match_modeESt17integral_constantIbLb0EE.constprop.538+0x555>
 8c5:	e9 06 fd ff ff       	jmpq   5d0 <_ZNSt8__detail9_ExecutorIN9__gnu_cxx17__normal_iteratorIPKcNSt7__cxx1112basic_stringIcSt11char_traitsIcESaIcEEEEESaINS5_9sub_matchISB_EEENS5_12regex_traitsIcEELb0EE16_M_main_dispatchENSH_11_Match_modeESt17integral_constantIbLb0EE.constprop.538+0x260>
 8ca:	66 0f 1f 44 00 00    	nopw   0x0(%rax,%rax,1)
 8d0:	be 01 00 00 00       	mov    $0x1,%esi
 8d5:	48 89 df             	mov    %rbx,%rdi
 8d8:	e8 00 00 00 00       	callq  8dd <_ZNSt8__detail9_ExecutorIN9__gnu_cxx17__normal_iteratorIPKcNSt7__cxx1112basic_stringIcSt11char_traitsIcESaIcEEEEESaINS5_9sub_matchISB_EEENS5_12regex_traitsIcEELb0EE16_M_main_dispatchENSH_11_Match_modeESt17integral_constantIbLb0EE.constprop.538+0x56d>
 8dd:	e9 ee fc ff ff       	jmpq   5d0 <_ZNSt8__detail9_ExecutorIN9__gnu_cxx17__normal_iteratorIPKcNSt7__cxx1112basic_stringIcSt11char_traitsIcESaIcEEEEESaINS5_9sub_matchISB_EEENS5_12regex_traitsIcEELb0EE16_M_main_dispatchENSH_11_Match_modeESt17integral_constantIbLb0EE.constprop.538+0x260>
 8e2:	66 0f 1f 44 00 00    	nopw   0x0(%rax,%rax,1)
 8e8:	48 8b 43 28          	mov    0x28(%rbx),%rax
 8ec:	48 39 43 18          	cmp    %rax,0x18(%rbx)
 8f0:	0f 85 da fc ff ff    	jne    5d0 <_ZNSt8__detail9_ExecutorIN9__gnu_cxx17__normal_iteratorIPKcNSt7__cxx1112basic_stringIcSt11char_traitsIcESaIcEEEEESaINS5_9sub_matchISB_EEENS5_12regex_traitsIcEELb0EE16_M_main_dispatchENSH_11_Match_modeESt17integral_constantIbLb0EE.constprop.538+0x260>
 8f6:	f6 83 88 00 00 00 02 	testb  $0x2,0x88(%rbx)
 8fd:	0f 84 cb fe ff ff    	je     7ce <_ZNSt8__detail9_ExecutorIN9__gnu_cxx17__normal_iteratorIPKcNSt7__cxx1112basic_stringIcSt11char_traitsIcESaIcEEEEESaINS5_9sub_matchISB_EEENS5_12regex_traitsIcEELb0EE16_M_main_dispatchENSH_11_Match_modeESt17integral_constantIbLb0EE.constprop.538+0x45e>
 903:	4c 39 ed             	cmp    %r13,%rbp
 906:	0f 85 c9 fc ff ff    	jne    5d5 <_ZNSt8__detail9_ExecutorIN9__gnu_cxx17__normal_iteratorIPKcNSt7__cxx1112basic_stringIcSt11char_traitsIcESaIcEEEEESaINS5_9sub_matchISB_EEENS5_12regex_traitsIcEELb0EE16_M_main_dispatchENSH_11_Match_modeESt17integral_constantIbLb0EE.constprop.538+0x265>
 90c:	0f b6 83 8c 00 00 00 	movzbl 0x8c(%rbx),%eax
 913:	48 8b 6c 24 58       	mov    0x58(%rsp),%rbp
 918:	08 44 24 26          	or     %al,0x26(%rsp)
 91c:	4c 8b 64 24 50       	mov    0x50(%rsp),%r12
 921:	4c 39 e5             	cmp    %r12,%rbp
 924:	74 2b                	je     951 <_ZNSt8__detail9_ExecutorIN9__gnu_cxx17__normal_iteratorIPKcNSt7__cxx1112basic_stringIcSt11char_traitsIcESaIcEEEEESaINS5_9sub_matchISB_EEENS5_12regex_traitsIcEELb0EE16_M_main_dispatchENSH_11_Match_modeESt17integral_constantIbLb0EE.constprop.538+0x5e1>
 926:	66 2e 0f 1f 84 00 00 	nopw   %cs:0x0(%rax,%rax,1)
 92d:	00 00 00 
 930:	49 8b 7c 24 08       	mov    0x8(%r12),%rdi
 935:	48 85 ff             	test   %rdi,%rdi
 938:	0f 84 42 01 00 00    	je     a80 <_ZNSt8__detail9_ExecutorIN9__gnu_cxx17__normal_iteratorIPKcNSt7__cxx1112basic_stringIcSt11char_traitsIcESaIcEEEEESaINS5_9sub_matchISB_EEENS5_12regex_traitsIcEELb0EE16_M_main_dispatchENSH_11_Match_modeESt17integral_constantIbLb0EE.constprop.538+0x710>
 93e:	49 83 c4 20          	add    $0x20,%r12
 942:	e8 00 00 00 00       	callq  947 <_ZNSt8__detail9_ExecutorIN9__gnu_cxx17__normal_iteratorIPKcNSt7__cxx1112basic_stringIcSt11char_traitsIcESaIcEEEEESaINS5_9sub_matchISB_EEENS5_12regex_traitsIcEELb0EE16_M_main_dispatchENSH_11_Match_modeESt17integral_constantIbLb0EE.constprop.538+0x5d7>
 947:	49 39 ec             	cmp    %rbp,%r12
 94a:	75 e4                	jne    930 <_ZNSt8__detail9_ExecutorIN9__gnu_cxx17__normal_iteratorIPKcNSt7__cxx1112basic_stringIcSt11char_traitsIcESaIcEEEEESaINS5_9sub_matchISB_EEENS5_12regex_traitsIcEELb0EE16_M_main_dispatchENSH_11_Match_modeESt17integral_constantIbLb0EE.constprop.538+0x5c0>
 94c:	4c 8b 64 24 50       	mov    0x50(%rsp),%r12
 951:	4d 85 e4             	test   %r12,%r12
 954:	74 08                	je     95e <_ZNSt8__detail9_ExecutorIN9__gnu_cxx17__normal_iteratorIPKcNSt7__cxx1112basic_stringIcSt11char_traitsIcESaIcEEEEESaINS5_9sub_matchISB_EEENS5_12regex_traitsIcEELb0EE16_M_main_dispatchENSH_11_Match_modeESt17integral_constantIbLb0EE.constprop.538+0x5ee>
 956:	4c 89 e7             	mov    %r12,%rdi
 959:	e8 00 00 00 00       	callq  95e <_ZNSt8__detail9_ExecutorIN9__gnu_cxx17__normal_iteratorIPKcNSt7__cxx1112basic_stringIcSt11char_traitsIcESaIcEEEEESaINS5_9sub_matchISB_EEENS5_12regex_traitsIcEELb0EE16_M_main_dispatchENSH_11_Match_modeESt17integral_constantIbLb0EE.constprop.538+0x5ee>
 95e:	48 8b 6b 60          	mov    0x60(%rbx),%rbp
 962:	4c 8b 6b 68          	mov    0x68(%rbx),%r13
 966:	4c 39 ed             	cmp    %r13,%rbp
 969:	0f 84 61 fd ff ff    	je     6d0 <_ZNSt8__detail9_ExecutorIN9__gnu_cxx17__normal_iteratorIPKcNSt7__cxx1112basic_stringIcSt11char_traitsIcESaIcEEEEESaINS5_9sub_matchISB_EEENS5_12regex_traitsIcEELb0EE16_M_main_dispatchENSH_11_Match_modeESt17integral_constantIbLb0EE.constprop.538+0x360>
 96f:	49 89 ec             	mov    %rbp,%r12
 972:	66 0f 1f 44 00 00    	nopw   0x0(%rax,%rax,1)
 978:	49 8b 7c 24 08       	mov    0x8(%r12),%rdi
 97d:	48 85 ff             	test   %rdi,%rdi
 980:	74 1c                	je     99e <_ZNSt8__detail9_ExecutorIN9__gnu_cxx17__normal_iteratorIPKcNSt7__cxx1112basic_stringIcSt11char_traitsIcESaIcEEEEESaINS5_9sub_matchISB_EEENS5_12regex_traitsIcEELb0EE16_M_main_dispatchENSH_11_Match_modeESt17integral_constantIbLb0EE.constprop.538+0x62e>
 982:	49 83 c4 20          	add    $0x20,%r12
 986:	e8 00 00 00 00       	callq  98b <_ZNSt8__detail9_ExecutorIN9__gnu_cxx17__normal_iteratorIPKcNSt7__cxx1112basic_stringIcSt11char_traitsIcESaIcEEEEESaINS5_9sub_matchISB_EEENS5_12regex_traitsIcEELb0EE16_M_main_dispatchENSH_11_Match_modeESt17integral_constantIbLb0EE.constprop.538+0x61b>
 98b:	4d 39 ec             	cmp    %r13,%r12
 98e:	0f 84 3c fd ff ff    	je     6d0 <_ZNSt8__detail9_ExecutorIN9__gnu_cxx17__normal_iteratorIPKcNSt7__cxx1112basic_stringIcSt11char_traitsIcESaIcEEEEESaINS5_9sub_matchISB_EEENS5_12regex_traitsIcEELb0EE16_M_main_dispatchENSH_11_Match_modeESt17integral_constantIbLb0EE.constprop.538+0x360>
 994:	49 8b 7c 24 08       	mov    0x8(%r12),%rdi
 999:	48 85 ff             	test   %rdi,%rdi
 99c:	75 e4                	jne    982 <_ZNSt8__detail9_ExecutorIN9__gnu_cxx17__normal_iteratorIPKcNSt7__cxx1112basic_stringIcSt11char_traitsIcESaIcEEEEESaINS5_9sub_matchISB_EEENS5_12regex_traitsIcEELb0EE16_M_main_dispatchENSH_11_Match_modeESt17integral_constantIbLb0EE.constprop.538+0x612>
 99e:	49 83 c4 20          	add    $0x20,%r12
 9a2:	4d 39 ec             	cmp    %r13,%r12
 9a5:	75 d1                	jne    978 <_ZNSt8__detail9_ExecutorIN9__gnu_cxx17__normal_iteratorIPKcNSt7__cxx1112basic_stringIcSt11char_traitsIcESaIcEEEEESaINS5_9sub_matchISB_EEENS5_12regex_traitsIcEELb0EE16_M_main_dispatchENSH_11_Match_modeESt17integral_constantIbLb0EE.constprop.538+0x608>
 9a7:	e9 24 fd ff ff       	jmpq   6d0 <_ZNSt8__detail9_ExecutorIN9__gnu_cxx17__normal_iteratorIPKcNSt7__cxx1112basic_stringIcSt11char_traitsIcESaIcEEEEESaINS5_9sub_matchISB_EEENS5_12regex_traitsIcEELb0EE16_M_main_dispatchENSH_11_Match_modeESt17integral_constantIbLb0EE.constprop.538+0x360>
 9ac:	0f 1f 40 00          	nopl   0x0(%rax)
 9b0:	48 8b 43 20          	mov    0x20(%rbx),%rax
 9b4:	48 39 43 18          	cmp    %rax,0x18(%rbx)
 9b8:	0f 85 12 fc ff ff    	jne    5d0 <_ZNSt8__detail9_ExecutorIN9__gnu_cxx17__normal_iteratorIPKcNSt7__cxx1112basic_stringIcSt11char_traitsIcESaIcEEEEESaINS5_9sub_matchISB_EEENS5_12regex_traitsIcEELb0EE16_M_main_dispatchENSH_11_Match_modeESt17integral_constantIbLb0EE.constprop.538+0x260>
 9be:	f6 83 88 00 00 00 81 	testb  $0x81,0x88(%rbx)
 9c5:	0f 85 05 fc ff ff    	jne    5d0 <_ZNSt8__detail9_ExecutorIN9__gnu_cxx17__normal_iteratorIPKcNSt7__cxx1112basic_stringIcSt11char_traitsIcESaIcEEEEESaINS5_9sub_matchISB_EEENS5_12regex_traitsIcEELb0EE16_M_main_dispatchENSH_11_Match_modeESt17integral_constantIbLb0EE.constprop.538+0x260>
 9cb:	e9 fe fd ff ff       	jmpq   7ce <_ZNSt8__detail9_ExecutorIN9__gnu_cxx17__normal_iteratorIPKcNSt7__cxx1112basic_stringIcSt11char_traitsIcESaIcEEEEESaINS5_9sub_matchISB_EEENS5_12regex_traitsIcEELb0EE16_M_main_dispatchENSH_11_Match_modeESt17integral_constantIbLb0EE.constprop.538+0x45e>
 9d0:	49 83 c4 20          	add    $0x20,%r12
 9d4:	49 39 ec             	cmp    %rbp,%r12
 9d7:	0f 85 a3 fc ff ff    	jne    680 <_ZNSt8__detail9_ExecutorIN9__gnu_cxx17__normal_iteratorIPKcNSt7__cxx1112basic_stringIcSt11char_traitsIcESaIcEEEEESaINS5_9sub_matchISB_EEENS5_12regex_traitsIcEELb0EE16_M_main_dispatchENSH_11_Match_modeESt17integral_constantIbLb0EE.constprop.538+0x310>
 9dd:	e9 ba fc ff ff       	jmpq   69c <_ZNSt8__detail9_ExecutorIN9__gnu_cxx17__normal_iteratorIPKcNSt7__cxx1112basic_stringIcSt11char_traitsIcESaIcEEEEESaINS5_9sub_matchISB_EEENS5_12regex_traitsIcEELb0EE16_M_main_dispatchENSH_11_Match_modeESt17integral_constantIbLb0EE.constprop.538+0x32c>
 9e2:	66 0f 1f 44 00 00    	nopw   0x0(%rax,%rax,1)
 9e8:	4c 8b 6b 68          	mov    0x68(%rbx),%r13
 9ec:	48 8b 6b 60          	mov    0x60(%rbx),%rbp
 9f0:	c6 83 8c 00 00 00 00 	movb   $0x0,0x8c(%rbx)
 9f7:	49 39 ed             	cmp    %rbp,%r13
 9fa:	0f 85 b0 fa ff ff    	jne    4b0 <_ZNSt8__detail9_ExecutorIN9__gnu_cxx17__normal_iteratorIPKcNSt7__cxx1112basic_stringIcSt11char_traitsIcESaIcEEEEESaINS5_9sub_matchISB_EEENS5_12regex_traitsIcEELb0EE16_M_main_dispatchENSH_11_Match_modeESt17integral_constantIbLb0EE.constprop.538+0x140>
 a00:	e9 cb fc ff ff       	jmpq   6d0 <_ZNSt8__detail9_ExecutorIN9__gnu_cxx17__normal_iteratorIPKcNSt7__cxx1112basic_stringIcSt11char_traitsIcESaIcEEEEESaINS5_9sub_matchISB_EEENS5_12regex_traitsIcEELb0EE16_M_main_dispatchENSH_11_Match_modeESt17integral_constantIbLb0EE.constprop.538+0x360>
 a05:	0f 1f 00             	nopl   (%rax)
 a08:	48 8b 7b 40          	mov    0x40(%rbx),%rdi
 a0c:	c6 83 8c 00 00 00 01 	movb   $0x1,0x8c(%rbx)
 a13:	48 89 de             	mov    %rbx,%rsi
 a16:	e8 00 00 00 00       	callq  a1b <_ZNSt8__detail9_ExecutorIN9__gnu_cxx17__normal_iteratorIPKcNSt7__cxx1112basic_stringIcSt11char_traitsIcESaIcEEEEESaINS5_9sub_matchISB_EEENS5_12regex_traitsIcEELb0EE16_M_main_dispatchENSH_11_Match_modeESt17integral_constantIbLb0EE.constprop.538+0x6ab>
 a1b:	e9 b0 fb ff ff       	jmpq   5d0 <_ZNSt8__detail9_ExecutorIN9__gnu_cxx17__normal_iteratorIPKcNSt7__cxx1112basic_stringIcSt11char_traitsIcESaIcEEEEESaINS5_9sub_matchISB_EEENS5_12regex_traitsIcEELb0EE16_M_main_dispatchENSH_11_Match_modeESt17integral_constantIbLb0EE.constprop.538+0x260>
 a20:	f6 83 88 00 00 00 08 	testb  $0x8,0x88(%rbx)
 a27:	0f 85 5a fe ff ff    	jne    887 <_ZNSt8__detail9_ExecutorIN9__gnu_cxx17__normal_iteratorIPKcNSt7__cxx1112basic_stringIcSt11char_traitsIcESaIcEEEEESaINS5_9sub_matchISB_EEENS5_12regex_traitsIcEELb0EE16_M_main_dispatchENSH_11_Match_modeESt17integral_constantIbLb0EE.constprop.538+0x517>
 a2d:	e9 ce fd ff ff       	jmpq   800 <_ZNSt8__detail9_ExecutorIN9__gnu_cxx17__normal_iteratorIPKcNSt7__cxx1112basic_stringIcSt11char_traitsIcESaIcEEEEESaINS5_9sub_matchISB_EEENS5_12regex_traitsIcEELb0EE16_M_main_dispatchENSH_11_Match_modeESt17integral_constantIbLb0EE.constprop.538+0x490>
 a32:	66 0f 1f 44 00 00    	nopw   0x0(%rax,%rax,1)
 a38:	8b 8b 88 00 00 00    	mov    0x88(%rbx),%ecx
 a3e:	f6 c1 04             	test   $0x4,%cl
 a41:	0f 85 40 fe ff ff    	jne    887 <_ZNSt8__detail9_ExecutorIN9__gnu_cxx17__normal_iteratorIPKcNSt7__cxx1112basic_stringIcSt11char_traitsIcESaIcEEEEESaINS5_9sub_matchISB_EEENS5_12regex_traitsIcEELb0EE16_M_main_dispatchENSH_11_Match_modeESt17integral_constantIbLb0EE.constprop.538+0x517>
 a47:	48 8b 53 28          	mov    0x28(%rbx),%rdx
 a4b:	48 39 d0             	cmp    %rdx,%rax
 a4e:	0f 84 c3 00 00 00    	je     b17 <_ZNSt8__detail9_ExecutorIN9__gnu_cxx17__normal_iteratorIPKcNSt7__cxx1112basic_stringIcSt11char_traitsIcESaIcEEEEESaINS5_9sub_matchISB_EEENS5_12regex_traitsIcEELb0EE16_M_main_dispatchENSH_11_Match_modeESt17integral_constantIbLb0EE.constprop.538+0x7a7>
 a54:	81 e1 80 00 00 00    	and    $0x80,%ecx
 a5a:	0f 84 e2 fd ff ff    	je     842 <_ZNSt8__detail9_ExecutorIN9__gnu_cxx17__normal_iteratorIPKcNSt7__cxx1112basic_stringIcSt11char_traitsIcESaIcEEEEESaINS5_9sub_matchISB_EEENS5_12regex_traitsIcEELb0EE16_M_main_dispatchENSH_11_Match_modeESt17integral_constantIbLb0EE.constprop.538+0x4d2>
 a60:	e9 9b fd ff ff       	jmpq   800 <_ZNSt8__detail9_ExecutorIN9__gnu_cxx17__normal_iteratorIPKcNSt7__cxx1112basic_stringIcSt11char_traitsIcESaIcEEEEESaINS5_9sub_matchISB_EEENS5_12regex_traitsIcEELb0EE16_M_main_dispatchENSH_11_Match_modeESt17integral_constantIbLb0EE.constprop.538+0x490>
 a65:	0f 1f 00             	nopl   (%rax)
 a68:	f6 83 88 00 00 00 20 	testb  $0x20,0x88(%rbx)
 a6f:	0f 84 49 fb ff ff    	je     5be <_ZNSt8__detail9_ExecutorIN9__gnu_cxx17__normal_iteratorIPKcNSt7__cxx1112basic_stringIcSt11char_traitsIcESaIcEEEEESaINS5_9sub_matchISB_EEENS5_12regex_traitsIcEELb0EE16_M_main_dispatchENSH_11_Match_modeESt17integral_constantIbLb0EE.constprop.538+0x24e>
 a75:	e9 56 fb ff ff       	jmpq   5d0 <_ZNSt8__detail9_ExecutorIN9__gnu_cxx17__normal_iteratorIPKcNSt7__cxx1112basic_stringIcSt11char_traitsIcESaIcEEEEESaINS5_9sub_matchISB_EEENS5_12regex_traitsIcEELb0EE16_M_main_dispatchENSH_11_Match_modeESt17integral_constantIbLb0EE.constprop.538+0x260>
 a7a:	66 0f 1f 44 00 00    	nopw   0x0(%rax,%rax,1)
 a80:	49 83 c4 20          	add    $0x20,%r12
 a84:	49 39 ec             	cmp    %rbp,%r12
 a87:	0f 85 a3 fe ff ff    	jne    930 <_ZNSt8__detail9_ExecutorIN9__gnu_cxx17__normal_iteratorIPKcNSt7__cxx1112basic_stringIcSt11char_traitsIcESaIcEEEEESaINS5_9sub_matchISB_EEENS5_12regex_traitsIcEELb0EE16_M_main_dispatchENSH_11_Match_modeESt17integral_constantIbLb0EE.constprop.538+0x5c0>
 a8d:	e9 ba fe ff ff       	jmpq   94c <_ZNSt8__detail9_ExecutorIN9__gnu_cxx17__normal_iteratorIPKcNSt7__cxx1112basic_stringIcSt11char_traitsIcESaIcEEEEESaINS5_9sub_matchISB_EEENS5_12regex_traitsIcEELb0EE16_M_main_dispatchENSH_11_Match_modeESt17integral_constantIbLb0EE.constprop.538+0x5dc>
 a92:	48 8d 54 24 40       	lea    0x40(%rsp),%rdx
 a97:	48 8d 7f 60          	lea    0x60(%rdi),%rdi
 a9b:	4c 89 ee             	mov    %r13,%rsi
 a9e:	4c 89 e1             	mov    %r12,%rcx
 aa1:	e8 00 00 00 00       	callq  aa6 <_ZNSt8__detail9_ExecutorIN9__gnu_cxx17__normal_iteratorIPKcNSt7__cxx1112basic_stringIcSt11char_traitsIcESaIcEEEEESaINS5_9sub_matchISB_EEENS5_12regex_traitsIcEELb0EE16_M_main_dispatchENSH_11_Match_modeESt17integral_constantIbLb0EE.constprop.538+0x736>
 aa6:	4c 8b 6b 68          	mov    0x68(%rbx),%r13
 aaa:	e9 de f9 ff ff       	jmpq   48d <_ZNSt8__detail9_ExecutorIN9__gnu_cxx17__normal_iteratorIPKcNSt7__cxx1112basic_stringIcSt11char_traitsIcESaIcEEEEESaINS5_9sub_matchISB_EEENS5_12regex_traitsIcEELb0EE16_M_main_dispatchENSH_11_Match_modeESt17integral_constantIbLb0EE.constprop.538+0x11d>
 aaf:	48 8b 54 24 08       	mov    0x8(%rsp),%rdx
 ab4:	48 8b 7c 24 28       	mov    0x28(%rsp),%rdi
 ab9:	48 89 d9             	mov    %rbx,%rcx
 abc:	e8 00 00 00 00       	callq  ac1 <_ZNSt8__detail9_ExecutorIN9__gnu_cxx17__normal_iteratorIPKcNSt7__cxx1112basic_stringIcSt11char_traitsIcESaIcEEEEESaINS5_9sub_matchISB_EEENS5_12regex_traitsIcEELb0EE16_M_main_dispatchENSH_11_Match_modeESt17integral_constantIbLb0EE.constprop.538+0x751>
 ac1:	e9 0a fb ff ff       	jmpq   5d0 <_ZNSt8__detail9_ExecutorIN9__gnu_cxx17__normal_iteratorIPKcNSt7__cxx1112basic_stringIcSt11char_traitsIcESaIcEEEEESaINS5_9sub_matchISB_EEENS5_12regex_traitsIcEELb0EE16_M_main_dispatchENSH_11_Match_modeESt17integral_constantIbLb0EE.constprop.538+0x260>
 ac6:	4c 89 ed             	mov    %r13,%rbp
 ac9:	c6 44 24 26 00       	movb   $0x0,0x26(%rsp)
 ace:	e9 fd fb ff ff       	jmpq   6d0 <_ZNSt8__detail9_ExecutorIN9__gnu_cxx17__normal_iteratorIPKcNSt7__cxx1112basic_stringIcSt11char_traitsIcESaIcEEEEESaINS5_9sub_matchISB_EEENS5_12regex_traitsIcEELb0EE16_M_main_dispatchENSH_11_Match_modeESt17integral_constantIbLb0EE.constprop.538+0x360>
 ad3:	48 89 c6             	mov    %rax,%rsi
 ad6:	e9 a3 f9 ff ff       	jmpq   47e <_ZNSt8__detail9_ExecutorIN9__gnu_cxx17__normal_iteratorIPKcNSt7__cxx1112basic_stringIcSt11char_traitsIcESaIcEEEEESaINS5_9sub_matchISB_EEENS5_12regex_traitsIcEELb0EE16_M_main_dispatchENSH_11_Match_modeESt17integral_constantIbLb0EE.constprop.538+0x10e>
 adb:	48 83 c2 18          	add    $0x18,%rdx
 adf:	48 83 fe 18          	cmp    $0x18,%rsi
 ae3:	0f 84 95 f9 ff ff    	je     47e <_ZNSt8__detail9_ExecutorIN9__gnu_cxx17__normal_iteratorIPKcNSt7__cxx1112basic_stringIcSt11char_traitsIcESaIcEEEEESaINS5_9sub_matchISB_EEENS5_12regex_traitsIcEELb0EE16_M_main_dispatchENSH_11_Match_modeESt17integral_constantIbLb0EE.constprop.538+0x10e>
 ae9:	b8 18 00 00 00       	mov    $0x18,%eax
 aee:	e9 6e f9 ff ff       	jmpq   461 <_ZNSt8__detail9_ExecutorIN9__gnu_cxx17__normal_iteratorIPKcNSt7__cxx1112basic_stringIcSt11char_traitsIcESaIcEEEEESaINS5_9sub_matchISB_EEENS5_12regex_traitsIcEELb0EE16_M_main_dispatchENSH_11_Match_modeESt17integral_constantIbLb0EE.constprop.538+0xf1>
 af3:	48 8d 7c 24 50       	lea    0x50(%rsp),%rdi
 af8:	48 89 c3             	mov    %rax,%rbx
 afb:	e8 00 00 00 00       	callq  b00 <_ZNSt8__detail9_ExecutorIN9__gnu_cxx17__normal_iteratorIPKcNSt7__cxx1112basic_stringIcSt11char_traitsIcESaIcEEEEESaINS5_9sub_matchISB_EEENS5_12regex_traitsIcEELb0EE16_M_main_dispatchENSH_11_Match_modeESt17integral_constantIbLb0EE.constprop.538+0x790>
 b00:	48 89 df             	mov    %rbx,%rdi
 b03:	e8 00 00 00 00       	callq  b08 <_ZNSt8__detail9_ExecutorIN9__gnu_cxx17__normal_iteratorIPKcNSt7__cxx1112basic_stringIcSt11char_traitsIcESaIcEEEEESaINS5_9sub_matchISB_EEENS5_12regex_traitsIcEELb0EE16_M_main_dispatchENSH_11_Match_modeESt17integral_constantIbLb0EE.constprop.538+0x798>
 b08:	e8 00 00 00 00       	callq  b0d <_ZNSt8__detail9_ExecutorIN9__gnu_cxx17__normal_iteratorIPKcNSt7__cxx1112basic_stringIcSt11char_traitsIcESaIcEEEEESaINS5_9sub_matchISB_EEENS5_12regex_traitsIcEELb0EE16_M_main_dispatchENSH_11_Match_modeESt17integral_constantIbLb0EE.constprop.538+0x79d>
 b0d:	e8 00 00 00 00       	callq  b12 <_ZNSt8__detail9_ExecutorIN9__gnu_cxx17__normal_iteratorIPKcNSt7__cxx1112basic_stringIcSt11char_traitsIcESaIcEEEEESaINS5_9sub_matchISB_EEENS5_12regex_traitsIcEELb0EE16_M_main_dispatchENSH_11_Match_modeESt17integral_constantIbLb0EE.constprop.538+0x7a2>
 b12:	e8 00 00 00 00       	callq  b17 <_ZNSt8__detail9_ExecutorIN9__gnu_cxx17__normal_iteratorIPKcNSt7__cxx1112basic_stringIcSt11char_traitsIcESaIcEEEEESaINS5_9sub_matchISB_EEENS5_12regex_traitsIcEELb0EE16_M_main_dispatchENSH_11_Match_modeESt17integral_constantIbLb0EE.constprop.538+0x7a7>
 b17:	f6 c1 08             	test   $0x8,%cl
 b1a:	0f 84 34 ff ff ff    	je     a54 <_ZNSt8__detail9_ExecutorIN9__gnu_cxx17__normal_iteratorIPKcNSt7__cxx1112basic_stringIcSt11char_traitsIcESaIcEEEEESaINS5_9sub_matchISB_EEENS5_12regex_traitsIcEELb0EE16_M_main_dispatchENSH_11_Match_modeESt17integral_constantIbLb0EE.constprop.538+0x6e4>
 b20:	e9 62 fd ff ff       	jmpq   887 <_ZNSt8__detail9_ExecutorIN9__gnu_cxx17__normal_iteratorIPKcNSt7__cxx1112basic_stringIcSt11char_traitsIcESaIcEEEEESaINS5_9sub_matchISB_EEENS5_12regex_traitsIcEELb0EE16_M_main_dispatchENSH_11_Match_modeESt17integral_constantIbLb0EE.constprop.538+0x517>
 b25:	90                   	nop
 b26:	66 2e 0f 1f 84 00 00 	nopw   %cs:0x0(%rax,%rax,1)
 b2d:	00 00 00 

0000000000000b30 <_ZSt16__introsort_loopIN9__gnu_cxx17__normal_iteratorIPcSt6vectorIcSaIcEEEElNS0_5__ops15_Iter_less_iterEEvT_S9_T0_T1_.isra.492>:
 b30:	41 57                	push   %r15
 b32:	49 89 f7             	mov    %rsi,%r15
 b35:	41 56                	push   %r14
 b37:	41 55                	push   %r13
 b39:	41 54                	push   %r12
 b3b:	49 29 ff             	sub    %rdi,%r15
 b3e:	55                   	push   %rbp
 b3f:	53                   	push   %rbx
 b40:	48 83 ec 08          	sub    $0x8,%rsp
 b44:	49 83 ff 10          	cmp    $0x10,%r15
 b48:	0f 8e 66 01 00 00    	jle    cb4 <_ZSt16__introsort_loopIN9__gnu_cxx17__normal_iteratorIPcSt6vectorIcSaIcEEEElNS0_5__ops15_Iter_less_iterEEvT_S9_T0_T1_.isra.492+0x184>
 b4e:	48 85 d2             	test   %rdx,%rdx
 b51:	49 89 fd             	mov    %rdi,%r13
 b54:	49 89 d6             	mov    %rdx,%r14
 b57:	49 89 f4             	mov    %rsi,%r12
 b5a:	0f 84 e3 00 00 00    	je     c43 <_ZSt16__introsort_loopIN9__gnu_cxx17__normal_iteratorIPcSt6vectorIcSaIcEEEElNS0_5__ops15_Iter_less_iterEEvT_S9_T0_T1_.isra.492+0x113>
 b60:	48 8d 6f 01          	lea    0x1(%rdi),%rbp
 b64:	48 89 f3             	mov    %rsi,%rbx
 b67:	4c 29 eb             	sub    %r13,%rbx
 b6a:	41 0f b6 4d 01       	movzbl 0x1(%r13),%ecx
 b6f:	49 83 ee 01          	sub    $0x1,%r14
 b73:	48 89 d8             	mov    %rbx,%rax
 b76:	44 0f b6 46 ff       	movzbl -0x1(%rsi),%r8d
 b7b:	41 0f b6 55 00       	movzbl 0x0(%r13),%edx
 b80:	48 c1 e8 3f          	shr    $0x3f,%rax
 b84:	48 01 c3             	add    %rax,%rbx
 b87:	48 d1 fb             	sar    %rbx
 b8a:	49 8d 44 1d 00       	lea    0x0(%r13,%rbx,1),%rax
 b8f:	0f b6 38             	movzbl (%rax),%edi
 b92:	40 38 f9             	cmp    %dil,%cl
 b95:	7d 69                	jge    c00 <_ZSt16__introsort_loopIN9__gnu_cxx17__normal_iteratorIPcSt6vectorIcSaIcEEEElNS0_5__ops15_Iter_less_iterEEvT_S9_T0_T1_.isra.492+0xd0>
 b97:	41 38 f8             	cmp    %dil,%r8b
 b9a:	0f 8f 23 01 00 00    	jg     cc3 <_ZSt16__introsort_loopIN9__gnu_cxx17__normal_iteratorIPcSt6vectorIcSaIcEEEElNS0_5__ops15_Iter_less_iterEEvT_S9_T0_T1_.isra.492+0x193>
 ba0:	41 38 c8             	cmp    %cl,%r8b
 ba3:	7f 69                	jg     c0e <_ZSt16__introsort_loopIN9__gnu_cxx17__normal_iteratorIPcSt6vectorIcSaIcEEEElNS0_5__ops15_Iter_less_iterEEvT_S9_T0_T1_.isra.492+0xde>
 ba5:	41 88 4d 00          	mov    %cl,0x0(%r13)
 ba9:	41 88 55 01          	mov    %dl,0x1(%r13)
 bad:	0f b6 56 ff          	movzbl -0x1(%rsi),%edx
 bb1:	48 89 eb             	mov    %rbp,%rbx
 bb4:	48 89 f0             	mov    %rsi,%rax
 bb7:	66 0f 1f 84 00 00 00 	nopw   0x0(%rax,%rax,1)
 bbe:	00 00 
 bc0:	0f b6 3b             	movzbl (%rbx),%edi
 bc3:	49 89 dc             	mov    %rbx,%r12
 bc6:	40 38 cf             	cmp    %cl,%dil
 bc9:	7c 2b                	jl     bf6 <_ZSt16__introsort_loopIN9__gnu_cxx17__normal_iteratorIPcSt6vectorIcSaIcEEEElNS0_5__ops15_Iter_less_iterEEvT_S9_T0_T1_.isra.492+0xc6>
 bcb:	48 83 e8 01          	sub    $0x1,%rax
 bcf:	38 ca                	cmp    %cl,%dl
 bd1:	7e 10                	jle    be3 <_ZSt16__introsort_loopIN9__gnu_cxx17__normal_iteratorIPcSt6vectorIcSaIcEEEElNS0_5__ops15_Iter_less_iterEEvT_S9_T0_T1_.isra.492+0xb3>
 bd3:	0f 1f 44 00 00       	nopl   0x0(%rax,%rax,1)
 bd8:	48 83 e8 01          	sub    $0x1,%rax
 bdc:	0f b6 10             	movzbl (%rax),%edx
 bdf:	38 ca                	cmp    %cl,%dl
 be1:	7f f5                	jg     bd8 <_ZSt16__introsort_loopIN9__gnu_cxx17__normal_iteratorIPcSt6vectorIcSaIcEEEElNS0_5__ops15_Iter_less_iterEEvT_S9_T0_T1_.isra.492+0xa8>
 be3:	48 39 d8             	cmp    %rbx,%rax
 be6:	76 38                	jbe    c20 <_ZSt16__introsort_loopIN9__gnu_cxx17__normal_iteratorIPcSt6vectorIcSaIcEEEElNS0_5__ops15_Iter_less_iterEEvT_S9_T0_T1_.isra.492+0xf0>
 be8:	88 13                	mov    %dl,(%rbx)
 bea:	40 88 38             	mov    %dil,(%rax)
 bed:	0f b6 50 ff          	movzbl -0x1(%rax),%edx
 bf1:	41 0f b6 4d 00       	movzbl 0x0(%r13),%ecx
 bf6:	48 83 c3 01          	add    $0x1,%rbx
 bfa:	eb c4                	jmp    bc0 <_ZSt16__introsort_loopIN9__gnu_cxx17__normal_iteratorIPcSt6vectorIcSaIcEEEElNS0_5__ops15_Iter_less_iterEEvT_S9_T0_T1_.isra.492+0x90>
 bfc:	0f 1f 40 00          	nopl   0x0(%rax)
 c00:	41 38 c8             	cmp    %cl,%r8b
 c03:	7f a0                	jg     ba5 <_ZSt16__introsort_loopIN9__gnu_cxx17__normal_iteratorIPcSt6vectorIcSaIcEEEElNS0_5__ops15_Iter_less_iterEEvT_S9_T0_T1_.isra.492+0x75>
 c05:	41 38 f8             	cmp    %dil,%r8b
 c08:	0f 8e b5 00 00 00    	jle    cc3 <_ZSt16__introsort_loopIN9__gnu_cxx17__normal_iteratorIPcSt6vectorIcSaIcEEEElNS0_5__ops15_Iter_less_iterEEvT_S9_T0_T1_.isra.492+0x193>
 c0e:	45 88 45 00          	mov    %r8b,0x0(%r13)
 c12:	88 56 ff             	mov    %dl,-0x1(%rsi)
 c15:	41 0f b6 4d 00       	movzbl 0x0(%r13),%ecx
 c1a:	eb 95                	jmp    bb1 <_ZSt16__introsort_loopIN9__gnu_cxx17__normal_iteratorIPcSt6vectorIcSaIcEEEElNS0_5__ops15_Iter_less_iterEEvT_S9_T0_T1_.isra.492+0x81>
 c1c:	0f 1f 40 00          	nopl   0x0(%rax)
 c20:	49 89 df             	mov    %rbx,%r15
 c23:	4c 89 f2             	mov    %r14,%rdx
 c26:	48 89 df             	mov    %rbx,%rdi
 c29:	4d 29 ef             	sub    %r13,%r15
 c2c:	e8 ff fe ff ff       	callq  b30 <_ZSt16__introsort_loopIN9__gnu_cxx17__normal_iteratorIPcSt6vectorIcSaIcEEEElNS0_5__ops15_Iter_less_iterEEvT_S9_T0_T1_.isra.492>
 c31:	49 83 ff 10          	cmp    $0x10,%r15
 c35:	7e 7d                	jle    cb4 <_ZSt16__introsort_loopIN9__gnu_cxx17__normal_iteratorIPcSt6vectorIcSaIcEEEElNS0_5__ops15_Iter_less_iterEEvT_S9_T0_T1_.isra.492+0x184>
 c37:	4d 85 f6             	test   %r14,%r14
 c3a:	48 89 de             	mov    %rbx,%rsi
 c3d:	0f 85 24 ff ff ff    	jne    b67 <_ZSt16__introsort_loopIN9__gnu_cxx17__normal_iteratorIPcSt6vectorIcSaIcEEEElNS0_5__ops15_Iter_less_iterEEvT_S9_T0_T1_.isra.492+0x37>
 c43:	49 8d 5f fe          	lea    -0x2(%r15),%rbx
 c47:	48 d1 fb             	sar    %rbx
 c4a:	eb 08                	jmp    c54 <_ZSt16__introsort_loopIN9__gnu_cxx17__normal_iteratorIPcSt6vectorIcSaIcEEEElNS0_5__ops15_Iter_less_iterEEvT_S9_T0_T1_.isra.492+0x124>
 c4c:	0f 1f 40 00          	nopl   0x0(%rax)
 c50:	48 83 eb 01          	sub    $0x1,%rbx
 c54:	41 0f be 4c 1d 00    	movsbl 0x0(%r13,%rbx,1),%ecx
 c5a:	48 83 ec 08          	sub    $0x8,%rsp
 c5e:	48 89 de             	mov    %rbx,%rsi
 c61:	6a 00                	pushq  $0x0
 c63:	4c 89 fa             	mov    %r15,%rdx
 c66:	4c 89 ef             	mov    %r13,%rdi
 c69:	e8 00 00 00 00       	callq  c6e <_ZSt16__introsort_loopIN9__gnu_cxx17__normal_iteratorIPcSt6vectorIcSaIcEEEElNS0_5__ops15_Iter_less_iterEEvT_S9_T0_T1_.isra.492+0x13e>
 c6e:	48 85 db             	test   %rbx,%rbx
 c71:	59                   	pop    %rcx
 c72:	5e                   	pop    %rsi
 c73:	75 db                	jne    c50 <_ZSt16__introsort_loopIN9__gnu_cxx17__normal_iteratorIPcSt6vectorIcSaIcEEEElNS0_5__ops15_Iter_less_iterEEvT_S9_T0_T1_.isra.492+0x120>
 c75:	49 83 ec 01          	sub    $0x1,%r12
 c79:	0f 1f 80 00 00 00 00 	nopl   0x0(%rax)
 c80:	41 0f b6 45 00       	movzbl 0x0(%r13),%eax
 c85:	41 0f be 0c 24       	movsbl (%r12),%ecx
 c8a:	48 83 ec 08          	sub    $0x8,%rsp
 c8e:	4c 89 e3             	mov    %r12,%rbx
 c91:	31 f6                	xor    %esi,%esi
 c93:	4c 89 ef             	mov    %r13,%rdi
 c96:	4c 29 eb             	sub    %r13,%rbx
 c99:	49 83 ec 01          	sub    $0x1,%r12
 c9d:	48 89 da             	mov    %rbx,%rdx
 ca0:	41 88 44 24 01       	mov    %al,0x1(%r12)
 ca5:	6a 00                	pushq  $0x0
 ca7:	e8 00 00 00 00       	callq  cac <_ZSt16__introsort_loopIN9__gnu_cxx17__normal_iteratorIPcSt6vectorIcSaIcEEEElNS0_5__ops15_Iter_less_iterEEvT_S9_T0_T1_.isra.492+0x17c>
 cac:	48 83 fb 01          	cmp    $0x1,%rbx
 cb0:	58                   	pop    %rax
 cb1:	5a                   	pop    %rdx
 cb2:	7f cc                	jg     c80 <_ZSt16__introsort_loopIN9__gnu_cxx17__normal_iteratorIPcSt6vectorIcSaIcEEEElNS0_5__ops15_Iter_less_iterEEvT_S9_T0_T1_.isra.492+0x150>
 cb4:	48 83 c4 08          	add    $0x8,%rsp
 cb8:	5b                   	pop    %rbx
 cb9:	5d                   	pop    %rbp
 cba:	41 5c                	pop    %r12
 cbc:	41 5d                	pop    %r13
 cbe:	41 5e                	pop    %r14
 cc0:	41 5f                	pop    %r15
 cc2:	c3                   	retq   
 cc3:	41 88 7d 00          	mov    %dil,0x0(%r13)
 cc7:	88 10                	mov    %dl,(%rax)
 cc9:	41 0f b6 4d 00       	movzbl 0x0(%r13),%ecx
 cce:	0f b6 56 ff          	movzbl -0x1(%rsi),%edx
 cd2:	e9 da fe ff ff       	jmpq   bb1 <_ZSt16__introsort_loopIN9__gnu_cxx17__normal_iteratorIPcSt6vectorIcSaIcEEEElNS0_5__ops15_Iter_less_iterEEvT_S9_T0_T1_.isra.492+0x81>

Disassembly of section .text._ZNKSt5ctypeIcE8do_widenEc:

0000000000000000 <_ZNKSt5ctypeIcE8do_widenEc>:
   0:	89 f0                	mov    %esi,%eax
   2:	c3                   	retq   

Disassembly of section .text._ZNKSt5ctypeIcE9do_narrowEcc:

0000000000000000 <_ZNKSt5ctypeIcE9do_narrowEcc>:
   0:	89 f0                	mov    %esi,%eax
   2:	c3                   	retq   

Disassembly of section .text._ZNSt14_Function_base13_Base_managerINSt8__detail11_AnyMatcherINSt7__cxx1112regex_traitsIcEELb0ELb0ELb0EEEE10_M_managerERSt9_Any_dataRKS8_St18_Manager_operation:

0000000000000000 <_ZNSt14_Function_base13_Base_managerINSt8__detail11_AnyMatcherINSt7__cxx1112regex_traitsIcEELb0ELb0ELb0EEEE10_M_managerERSt9_Any_dataRKS8_St18_Manager_operation>:
   0:	85 d2                	test   %edx,%edx
   2:	74 0c                	je     10 <_ZNSt14_Function_base13_Base_managerINSt8__detail11_AnyMatcherINSt7__cxx1112regex_traitsIcEELb0ELb0ELb0EEEE10_M_managerERSt9_Any_dataRKS8_St18_Manager_operation+0x10>
   4:	83 fa 01             	cmp    $0x1,%edx
   7:	75 03                	jne    c <_ZNSt14_Function_base13_Base_managerINSt8__detail11_AnyMatcherINSt7__cxx1112regex_traitsIcEELb0ELb0ELb0EEEE10_M_managerERSt9_Any_dataRKS8_St18_Manager_operation+0xc>
   9:	48 89 37             	mov    %rsi,(%rdi)
   c:	31 c0                	xor    %eax,%eax
   e:	c3                   	retq   
   f:	90                   	nop
  10:	48 8d 05 00 00 00 00 	lea    0x0(%rip),%rax        # 17 <_ZNSt14_Function_base13_Base_managerINSt8__detail11_AnyMatcherINSt7__cxx1112regex_traitsIcEELb0ELb0ELb0EEEE10_M_managerERSt9_Any_dataRKS8_St18_Manager_operation+0x17>
  17:	48 89 07             	mov    %rax,(%rdi)
  1a:	31 c0                	xor    %eax,%eax
  1c:	c3                   	retq   

Disassembly of section .text._ZNSt14_Function_base13_Base_managerINSt8__detail11_AnyMatcherINSt7__cxx1112regex_traitsIcEELb0ELb0ELb1EEEE10_M_managerERSt9_Any_dataRKS8_St18_Manager_operation:

0000000000000000 <_ZNSt14_Function_base13_Base_managerINSt8__detail11_AnyMatcherINSt7__cxx1112regex_traitsIcEELb0ELb0ELb1EEEE10_M_managerERSt9_Any_dataRKS8_St18_Manager_operation>:
   0:	83 fa 01             	cmp    $0x1,%edx
   3:	74 23                	je     28 <_ZNSt14_Function_base13_Base_managerINSt8__detail11_AnyMatcherINSt7__cxx1112regex_traitsIcEELb0ELb0ELb1EEEE10_M_managerERSt9_Any_dataRKS8_St18_Manager_operation+0x28>
   5:	72 11                	jb     18 <_ZNSt14_Function_base13_Base_managerINSt8__detail11_AnyMatcherINSt7__cxx1112regex_traitsIcEELb0ELb0ELb1EEEE10_M_managerERSt9_Any_dataRKS8_St18_Manager_operation+0x18>
   7:	83 fa 02             	cmp    $0x2,%edx
   a:	75 06                	jne    12 <_ZNSt14_Function_base13_Base_managerINSt8__detail11_AnyMatcherINSt7__cxx1112regex_traitsIcEELb0ELb0ELb1EEEE10_M_managerERSt9_Any_dataRKS8_St18_Manager_operation+0x12>
   c:	48 8b 06             	mov    (%rsi),%rax
   f:	48 89 07             	mov    %rax,(%rdi)
  12:	31 c0                	xor    %eax,%eax
  14:	c3                   	retq   
  15:	0f 1f 00             	nopl   (%rax)
  18:	48 8d 05 00 00 00 00 	lea    0x0(%rip),%rax        # 1f <_ZNSt14_Function_base13_Base_managerINSt8__detail11_AnyMatcherINSt7__cxx1112regex_traitsIcEELb0ELb0ELb1EEEE10_M_managerERSt9_Any_dataRKS8_St18_Manager_operation+0x1f>
  1f:	48 89 07             	mov    %rax,(%rdi)
  22:	31 c0                	xor    %eax,%eax
  24:	c3                   	retq   
  25:	0f 1f 00             	nopl   (%rax)
  28:	48 89 37             	mov    %rsi,(%rdi)
  2b:	31 c0                	xor    %eax,%eax
  2d:	c3                   	retq   

Disassembly of section .text._ZNSt14_Function_base13_Base_managerINSt8__detail11_AnyMatcherINSt7__cxx1112regex_traitsIcEELb0ELb1ELb0EEEE10_M_managerERSt9_Any_dataRKS8_St18_Manager_operation:

0000000000000000 <_ZNSt14_Function_base13_Base_managerINSt8__detail11_AnyMatcherINSt7__cxx1112regex_traitsIcEELb0ELb1ELb0EEEE10_M_managerERSt9_Any_dataRKS8_St18_Manager_operation>:
   0:	83 fa 01             	cmp    $0x1,%edx
   3:	74 23                	je     28 <_ZNSt14_Function_base13_Base_managerINSt8__detail11_AnyMatcherINSt7__cxx1112regex_traitsIcEELb0ELb1ELb0EEEE10_M_managerERSt9_Any_dataRKS8_St18_Manager_operation+0x28>
   5:	72 11                	jb     18 <_ZNSt14_Function_base13_Base_managerINSt8__detail11_AnyMatcherINSt7__cxx1112regex_traitsIcEELb0ELb1ELb0EEEE10_M_managerERSt9_Any_dataRKS8_St18_Manager_operation+0x18>
   7:	83 fa 02             	cmp    $0x2,%edx
   a:	75 06                	jne    12 <_ZNSt14_Function_base13_Base_managerINSt8__detail11_AnyMatcherINSt7__cxx1112regex_traitsIcEELb0ELb1ELb0EEEE10_M_managerERSt9_Any_dataRKS8_St18_Manager_operation+0x12>
   c:	48 8b 06             	mov    (%rsi),%rax
   f:	48 89 07             	mov    %rax,(%rdi)
  12:	31 c0                	xor    %eax,%eax
  14:	c3                   	retq   
  15:	0f 1f 00             	nopl   (%rax)
  18:	48 8d 05 00 00 00 00 	lea    0x0(%rip),%rax        # 1f <_ZNSt14_Function_base13_Base_managerINSt8__detail11_AnyMatcherINSt7__cxx1112regex_traitsIcEELb0ELb1ELb0EEEE10_M_managerERSt9_Any_dataRKS8_St18_Manager_operation+0x1f>
  1f:	48 89 07             	mov    %rax,(%rdi)
  22:	31 c0                	xor    %eax,%eax
  24:	c3                   	retq   
  25:	0f 1f 00             	nopl   (%rax)
  28:	48 89 37             	mov    %rsi,(%rdi)
  2b:	31 c0                	xor    %eax,%eax
  2d:	c3                   	retq   

Disassembly of section .text._ZNSt14_Function_base13_Base_managerINSt8__detail11_AnyMatcherINSt7__cxx1112regex_traitsIcEELb0ELb1ELb1EEEE10_M_managerERSt9_Any_dataRKS8_St18_Manager_operation:

0000000000000000 <_ZNSt14_Function_base13_Base_managerINSt8__detail11_AnyMatcherINSt7__cxx1112regex_traitsIcEELb0ELb1ELb1EEEE10_M_managerERSt9_Any_dataRKS8_St18_Manager_operation>:
   0:	83 fa 01             	cmp    $0x1,%edx
   3:	74 23                	je     28 <_ZNSt14_Function_base13_Base_managerINSt8__detail11_AnyMatcherINSt7__cxx1112regex_traitsIcEELb0ELb1ELb1EEEE10_M_managerERSt9_Any_dataRKS8_St18_Manager_operation+0x28>
   5:	72 11                	jb     18 <_ZNSt14_Function_base13_Base_managerINSt8__detail11_AnyMatcherINSt7__cxx1112regex_traitsIcEELb0ELb1ELb1EEEE10_M_managerERSt9_Any_dataRKS8_St18_Manager_operation+0x18>
   7:	83 fa 02             	cmp    $0x2,%edx
   a:	75 06                	jne    12 <_ZNSt14_Function_base13_Base_managerINSt8__detail11_AnyMatcherINSt7__cxx1112regex_traitsIcEELb0ELb1ELb1EEEE10_M_managerERSt9_Any_dataRKS8_St18_Manager_operation+0x12>
   c:	48 8b 06             	mov    (%rsi),%rax
   f:	48 89 07             	mov    %rax,(%rdi)
  12:	31 c0                	xor    %eax,%eax
  14:	c3                   	retq   
  15:	0f 1f 00             	nopl   (%rax)
  18:	48 8d 05 00 00 00 00 	lea    0x0(%rip),%rax        # 1f <_ZNSt14_Function_base13_Base_managerINSt8__detail11_AnyMatcherINSt7__cxx1112regex_traitsIcEELb0ELb1ELb1EEEE10_M_managerERSt9_Any_dataRKS8_St18_Manager_operation+0x1f>
  1f:	48 89 07             	mov    %rax,(%rdi)
  22:	31 c0                	xor    %eax,%eax
  24:	c3                   	retq   
  25:	0f 1f 00             	nopl   (%rax)
  28:	48 89 37             	mov    %rsi,(%rdi)
  2b:	31 c0                	xor    %eax,%eax
  2d:	c3                   	retq   

Disassembly of section .text._ZNSt17_Function_handlerIFbcENSt8__detail11_AnyMatcherINSt7__cxx1112regex_traitsIcEELb1ELb0ELb0EEEE9_M_invokeERKSt9_Any_dataOc:

0000000000000000 <_ZNSt17_Function_handlerIFbcENSt8__detail11_AnyMatcherINSt7__cxx1112regex_traitsIcEELb1ELb0ELb0EEEE9_M_invokeERKSt9_Any_dataOc>:
   0:	0f b6 16             	movzbl (%rsi),%edx
   3:	80 fa 0d             	cmp    $0xd,%dl
   6:	0f 95 c0             	setne  %al
   9:	80 fa 0a             	cmp    $0xa,%dl
   c:	0f 95 c2             	setne  %dl
   f:	21 d0                	and    %edx,%eax
  11:	c3                   	retq   

Disassembly of section .text._ZNSt14_Function_base13_Base_managerINSt8__detail11_AnyMatcherINSt7__cxx1112regex_traitsIcEELb1ELb0ELb0EEEE10_M_managerERSt9_Any_dataRKS8_St18_Manager_operation:

0000000000000000 <_ZNSt14_Function_base13_Base_managerINSt8__detail11_AnyMatcherINSt7__cxx1112regex_traitsIcEELb1ELb0ELb0EEEE10_M_managerERSt9_Any_dataRKS8_St18_Manager_operation>:
   0:	85 d2                	test   %edx,%edx
   2:	74 0c                	je     10 <_ZNSt14_Function_base13_Base_managerINSt8__detail11_AnyMatcherINSt7__cxx1112regex_traitsIcEELb1ELb0ELb0EEEE10_M_managerERSt9_Any_dataRKS8_St18_Manager_operation+0x10>
   4:	83 fa 01             	cmp    $0x1,%edx
   7:	75 03                	jne    c <_ZNSt14_Function_base13_Base_managerINSt8__detail11_AnyMatcherINSt7__cxx1112regex_traitsIcEELb1ELb0ELb0EEEE10_M_managerERSt9_Any_dataRKS8_St18_Manager_operation+0xc>
   9:	48 89 37             	mov    %rsi,(%rdi)
   c:	31 c0                	xor    %eax,%eax
   e:	c3                   	retq   
   f:	90                   	nop
  10:	48 8d 05 00 00 00 00 	lea    0x0(%rip),%rax        # 17 <_ZNSt14_Function_base13_Base_managerINSt8__detail11_AnyMatcherINSt7__cxx1112regex_traitsIcEELb1ELb0ELb0EEEE10_M_managerERSt9_Any_dataRKS8_St18_Manager_operation+0x17>
  17:	48 89 07             	mov    %rax,(%rdi)
  1a:	31 c0                	xor    %eax,%eax
  1c:	c3                   	retq   

Disassembly of section .text._ZNSt17_Function_handlerIFbcENSt8__detail11_AnyMatcherINSt7__cxx1112regex_traitsIcEELb1ELb0ELb1EEEE9_M_invokeERKSt9_Any_dataOc:

0000000000000000 <_ZNSt17_Function_handlerIFbcENSt8__detail11_AnyMatcherINSt7__cxx1112regex_traitsIcEELb1ELb0ELb1EEEE9_M_invokeERKSt9_Any_dataOc>:
   0:	0f b6 16             	movzbl (%rsi),%edx
   3:	80 fa 0d             	cmp    $0xd,%dl
   6:	0f 95 c0             	setne  %al
   9:	80 fa 0a             	cmp    $0xa,%dl
   c:	0f 95 c2             	setne  %dl
   f:	21 d0                	and    %edx,%eax
  11:	c3                   	retq   

Disassembly of section .text._ZNSt14_Function_base13_Base_managerINSt8__detail11_AnyMatcherINSt7__cxx1112regex_traitsIcEELb1ELb0ELb1EEEE10_M_managerERSt9_Any_dataRKS8_St18_Manager_operation:

0000000000000000 <_ZNSt14_Function_base13_Base_managerINSt8__detail11_AnyMatcherINSt7__cxx1112regex_traitsIcEELb1ELb0ELb1EEEE10_M_managerERSt9_Any_dataRKS8_St18_Manager_operation>:
   0:	83 fa 01             	cmp    $0x1,%edx
   3:	74 23                	je     28 <_ZNSt14_Function_base13_Base_managerINSt8__detail11_AnyMatcherINSt7__cxx1112regex_traitsIcEELb1ELb0ELb1EEEE10_M_managerERSt9_Any_dataRKS8_St18_Manager_operation+0x28>
   5:	72 11                	jb     18 <_ZNSt14_Function_base13_Base_managerINSt8__detail11_AnyMatcherINSt7__cxx1112regex_traitsIcEELb1ELb0ELb1EEEE10_M_managerERSt9_Any_dataRKS8_St18_Manager_operation+0x18>
   7:	83 fa 02             	cmp    $0x2,%edx
   a:	75 06                	jne    12 <_ZNSt14_Function_base13_Base_managerINSt8__detail11_AnyMatcherINSt7__cxx1112regex_traitsIcEELb1ELb0ELb1EEEE10_M_managerERSt9_Any_dataRKS8_St18_Manager_operation+0x12>
   c:	48 8b 06             	mov    (%rsi),%rax
   f:	48 89 07             	mov    %rax,(%rdi)
  12:	31 c0                	xor    %eax,%eax
  14:	c3                   	retq   
  15:	0f 1f 00             	nopl   (%rax)
  18:	48 8d 05 00 00 00 00 	lea    0x0(%rip),%rax        # 1f <_ZNSt14_Function_base13_Base_managerINSt8__detail11_AnyMatcherINSt7__cxx1112regex_traitsIcEELb1ELb0ELb1EEEE10_M_managerERSt9_Any_dataRKS8_St18_Manager_operation+0x1f>
  1f:	48 89 07             	mov    %rax,(%rdi)
  22:	31 c0                	xor    %eax,%eax
  24:	c3                   	retq   
  25:	0f 1f 00             	nopl   (%rax)
  28:	48 89 37             	mov    %rsi,(%rdi)
  2b:	31 c0                	xor    %eax,%eax
  2d:	c3                   	retq   

Disassembly of section .text._ZNSt14_Function_base13_Base_managerINSt8__detail11_AnyMatcherINSt7__cxx1112regex_traitsIcEELb1ELb1ELb0EEEE10_M_managerERSt9_Any_dataRKS8_St18_Manager_operation:

0000000000000000 <_ZNSt14_Function_base13_Base_managerINSt8__detail11_AnyMatcherINSt7__cxx1112regex_traitsIcEELb1ELb1ELb0EEEE10_M_managerERSt9_Any_dataRKS8_St18_Manager_operation>:
   0:	83 fa 01             	cmp    $0x1,%edx
   3:	74 23                	je     28 <_ZNSt14_Function_base13_Base_managerINSt8__detail11_AnyMatcherINSt7__cxx1112regex_traitsIcEELb1ELb1ELb0EEEE10_M_managerERSt9_Any_dataRKS8_St18_Manager_operation+0x28>
   5:	72 11                	jb     18 <_ZNSt14_Function_base13_Base_managerINSt8__detail11_AnyMatcherINSt7__cxx1112regex_traitsIcEELb1ELb1ELb0EEEE10_M_managerERSt9_Any_dataRKS8_St18_Manager_operation+0x18>
   7:	83 fa 02             	cmp    $0x2,%edx
   a:	75 06                	jne    12 <_ZNSt14_Function_base13_Base_managerINSt8__detail11_AnyMatcherINSt7__cxx1112regex_traitsIcEELb1ELb1ELb0EEEE10_M_managerERSt9_Any_dataRKS8_St18_Manager_operation+0x12>
   c:	48 8b 06             	mov    (%rsi),%rax
   f:	48 89 07             	mov    %rax,(%rdi)
  12:	31 c0                	xor    %eax,%eax
  14:	c3                   	retq   
  15:	0f 1f 00             	nopl   (%rax)
  18:	48 8d 05 00 00 00 00 	lea    0x0(%rip),%rax        # 1f <_ZNSt14_Function_base13_Base_managerINSt8__detail11_AnyMatcherINSt7__cxx1112regex_traitsIcEELb1ELb1ELb0EEEE10_M_managerERSt9_Any_dataRKS8_St18_Manager_operation+0x1f>
  1f:	48 89 07             	mov    %rax,(%rdi)
  22:	31 c0                	xor    %eax,%eax
  24:	c3                   	retq   
  25:	0f 1f 00             	nopl   (%rax)
  28:	48 89 37             	mov    %rsi,(%rdi)
  2b:	31 c0                	xor    %eax,%eax
  2d:	c3                   	retq   

Disassembly of section .text._ZNSt14_Function_base13_Base_managerINSt8__detail11_AnyMatcherINSt7__cxx1112regex_traitsIcEELb1ELb1ELb1EEEE10_M_managerERSt9_Any_dataRKS8_St18_Manager_operation:

0000000000000000 <_ZNSt14_Function_base13_Base_managerINSt8__detail11_AnyMatcherINSt7__cxx1112regex_traitsIcEELb1ELb1ELb1EEEE10_M_managerERSt9_Any_dataRKS8_St18_Manager_operation>:
   0:	83 fa 01             	cmp    $0x1,%edx
   3:	74 23                	je     28 <_ZNSt14_Function_base13_Base_managerINSt8__detail11_AnyMatcherINSt7__cxx1112regex_traitsIcEELb1ELb1ELb1EEEE10_M_managerERSt9_Any_dataRKS8_St18_Manager_operation+0x28>
   5:	72 11                	jb     18 <_ZNSt14_Function_base13_Base_managerINSt8__detail11_AnyMatcherINSt7__cxx1112regex_traitsIcEELb1ELb1ELb1EEEE10_M_managerERSt9_Any_dataRKS8_St18_Manager_operation+0x18>
   7:	83 fa 02             	cmp    $0x2,%edx
   a:	75 06                	jne    12 <_ZNSt14_Function_base13_Base_managerINSt8__detail11_AnyMatcherINSt7__cxx1112regex_traitsIcEELb1ELb1ELb1EEEE10_M_managerERSt9_Any_dataRKS8_St18_Manager_operation+0x12>
   c:	48 8b 06             	mov    (%rsi),%rax
   f:	48 89 07             	mov    %rax,(%rdi)
  12:	31 c0                	xor    %eax,%eax
  14:	c3                   	retq   
  15:	0f 1f 00             	nopl   (%rax)
  18:	48 8d 05 00 00 00 00 	lea    0x0(%rip),%rax        # 1f <_ZNSt14_Function_base13_Base_managerINSt8__detail11_AnyMatcherINSt7__cxx1112regex_traitsIcEELb1ELb1ELb1EEEE10_M_managerERSt9_Any_dataRKS8_St18_Manager_operation+0x1f>
  1f:	48 89 07             	mov    %rax,(%rdi)
  22:	31 c0                	xor    %eax,%eax
  24:	c3                   	retq   
  25:	0f 1f 00             	nopl   (%rax)
  28:	48 89 37             	mov    %rsi,(%rdi)
  2b:	31 c0                	xor    %eax,%eax
  2d:	c3                   	retq   

Disassembly of section .text._ZNSt17_Function_handlerIFbcENSt8__detail12_CharMatcherINSt7__cxx1112regex_traitsIcEELb0ELb0EEEE9_M_invokeERKSt9_Any_dataOc:

0000000000000000 <_ZNSt17_Function_handlerIFbcENSt8__detail12_CharMatcherINSt7__cxx1112regex_traitsIcEELb0ELb0EEEE9_M_invokeERKSt9_Any_dataOc>:
   0:	0f b6 47 01          	movzbl 0x1(%rdi),%eax
   4:	38 06                	cmp    %al,(%rsi)
   6:	0f 94 c0             	sete   %al
   9:	c3                   	retq   

Disassembly of section .text._ZNSt14_Function_base13_Base_managerINSt8__detail12_CharMatcherINSt7__cxx1112regex_traitsIcEELb0ELb0EEEE10_M_managerERSt9_Any_dataRKS8_St18_Manager_operation:

0000000000000000 <_ZNSt14_Function_base13_Base_managerINSt8__detail12_CharMatcherINSt7__cxx1112regex_traitsIcEELb0ELb0EEEE10_M_managerERSt9_Any_dataRKS8_St18_Manager_operation>:
   0:	83 fa 01             	cmp    $0x1,%edx
   3:	74 23                	je     28 <_ZNSt14_Function_base13_Base_managerINSt8__detail12_CharMatcherINSt7__cxx1112regex_traitsIcEELb0ELb0EEEE10_M_managerERSt9_Any_dataRKS8_St18_Manager_operation+0x28>
   5:	72 11                	jb     18 <_ZNSt14_Function_base13_Base_managerINSt8__detail12_CharMatcherINSt7__cxx1112regex_traitsIcEELb0ELb0EEEE10_M_managerERSt9_Any_dataRKS8_St18_Manager_operation+0x18>
   7:	83 fa 02             	cmp    $0x2,%edx
   a:	75 06                	jne    12 <_ZNSt14_Function_base13_Base_managerINSt8__detail12_CharMatcherINSt7__cxx1112regex_traitsIcEELb0ELb0EEEE10_M_managerERSt9_Any_dataRKS8_St18_Manager_operation+0x12>
   c:	0f b7 06             	movzwl (%rsi),%eax
   f:	66 89 07             	mov    %ax,(%rdi)
  12:	31 c0                	xor    %eax,%eax
  14:	c3                   	retq   
  15:	0f 1f 00             	nopl   (%rax)
  18:	48 8d 05 00 00 00 00 	lea    0x0(%rip),%rax        # 1f <_ZNSt14_Function_base13_Base_managerINSt8__detail12_CharMatcherINSt7__cxx1112regex_traitsIcEELb0ELb0EEEE10_M_managerERSt9_Any_dataRKS8_St18_Manager_operation+0x1f>
  1f:	48 89 07             	mov    %rax,(%rdi)
  22:	31 c0                	xor    %eax,%eax
  24:	c3                   	retq   
  25:	0f 1f 00             	nopl   (%rax)
  28:	48 89 37             	mov    %rsi,(%rdi)
  2b:	31 c0                	xor    %eax,%eax
  2d:	c3                   	retq   

Disassembly of section .text._ZNSt17_Function_handlerIFbcENSt8__detail12_CharMatcherINSt7__cxx1112regex_traitsIcEELb0ELb1EEEE9_M_invokeERKSt9_Any_dataOc:

0000000000000000 <_ZNSt17_Function_handlerIFbcENSt8__detail12_CharMatcherINSt7__cxx1112regex_traitsIcEELb0ELb1EEEE9_M_invokeERKSt9_Any_dataOc>:
   0:	0f b6 47 08          	movzbl 0x8(%rdi),%eax
   4:	38 06                	cmp    %al,(%rsi)
   6:	0f 94 c0             	sete   %al
   9:	c3                   	retq   

Disassembly of section .text._ZNSt14_Function_base13_Base_managerINSt8__detail12_CharMatcherINSt7__cxx1112regex_traitsIcEELb0ELb1EEEE10_M_managerERSt9_Any_dataRKS8_St18_Manager_operation:

0000000000000000 <_ZNSt14_Function_base13_Base_managerINSt8__detail12_CharMatcherINSt7__cxx1112regex_traitsIcEELb0ELb1EEEE10_M_managerERSt9_Any_dataRKS8_St18_Manager_operation>:
   0:	83 fa 01             	cmp    $0x1,%edx
   3:	74 2b                	je     30 <_ZNSt14_Function_base13_Base_managerINSt8__detail12_CharMatcherINSt7__cxx1112regex_traitsIcEELb0ELb1EEEE10_M_managerERSt9_Any_dataRKS8_St18_Manager_operation+0x30>
   5:	72 19                	jb     20 <_ZNSt14_Function_base13_Base_managerINSt8__detail12_CharMatcherINSt7__cxx1112regex_traitsIcEELb0ELb1EEEE10_M_managerERSt9_Any_dataRKS8_St18_Manager_operation+0x20>
   7:	83 fa 02             	cmp    $0x2,%edx
   a:	75 07                	jne    13 <_ZNSt14_Function_base13_Base_managerINSt8__detail12_CharMatcherINSt7__cxx1112regex_traitsIcEELb0ELb1EEEE10_M_managerERSt9_Any_dataRKS8_St18_Manager_operation+0x13>
   c:	f3 0f 6f 06          	movdqu (%rsi),%xmm0
  10:	0f 11 07             	movups %xmm0,(%rdi)
  13:	31 c0                	xor    %eax,%eax
  15:	c3                   	retq   
  16:	66 2e 0f 1f 84 00 00 	nopw   %cs:0x0(%rax,%rax,1)
  1d:	00 00 00 
  20:	48 8d 05 00 00 00 00 	lea    0x0(%rip),%rax        # 27 <_ZNSt14_Function_base13_Base_managerINSt8__detail12_CharMatcherINSt7__cxx1112regex_traitsIcEELb0ELb1EEEE10_M_managerERSt9_Any_dataRKS8_St18_Manager_operation+0x27>
  27:	48 89 07             	mov    %rax,(%rdi)
  2a:	31 c0                	xor    %eax,%eax
  2c:	c3                   	retq   
  2d:	0f 1f 00             	nopl   (%rax)
  30:	48 89 37             	mov    %rsi,(%rdi)
  33:	31 c0                	xor    %eax,%eax
  35:	c3                   	retq   

Disassembly of section .text._ZNSt14_Function_base13_Base_managerINSt8__detail12_CharMatcherINSt7__cxx1112regex_traitsIcEELb1ELb0EEEE10_M_managerERSt9_Any_dataRKS8_St18_Manager_operation:

0000000000000000 <_ZNSt14_Function_base13_Base_managerINSt8__detail12_CharMatcherINSt7__cxx1112regex_traitsIcEELb1ELb0EEEE10_M_managerERSt9_Any_dataRKS8_St18_Manager_operation>:
   0:	83 fa 01             	cmp    $0x1,%edx
   3:	74 2b                	je     30 <_ZNSt14_Function_base13_Base_managerINSt8__detail12_CharMatcherINSt7__cxx1112regex_traitsIcEELb1ELb0EEEE10_M_managerERSt9_Any_dataRKS8_St18_Manager_operation+0x30>
   5:	72 19                	jb     20 <_ZNSt14_Function_base13_Base_managerINSt8__detail12_CharMatcherINSt7__cxx1112regex_traitsIcEELb1ELb0EEEE10_M_managerERSt9_Any_dataRKS8_St18_Manager_operation+0x20>
   7:	83 fa 02             	cmp    $0x2,%edx
   a:	75 07                	jne    13 <_ZNSt14_Function_base13_Base_managerINSt8__detail12_CharMatcherINSt7__cxx1112regex_traitsIcEELb1ELb0EEEE10_M_managerERSt9_Any_dataRKS8_St18_Manager_operation+0x13>
   c:	f3 0f 6f 06          	movdqu (%rsi),%xmm0
  10:	0f 11 07             	movups %xmm0,(%rdi)
  13:	31 c0                	xor    %eax,%eax
  15:	c3                   	retq   
  16:	66 2e 0f 1f 84 00 00 	nopw   %cs:0x0(%rax,%rax,1)
  1d:	00 00 00 
  20:	48 8d 05 00 00 00 00 	lea    0x0(%rip),%rax        # 27 <_ZNSt14_Function_base13_Base_managerINSt8__detail12_CharMatcherINSt7__cxx1112regex_traitsIcEELb1ELb0EEEE10_M_managerERSt9_Any_dataRKS8_St18_Manager_operation+0x27>
  27:	48 89 07             	mov    %rax,(%rdi)
  2a:	31 c0                	xor    %eax,%eax
  2c:	c3                   	retq   
  2d:	0f 1f 00             	nopl   (%rax)
  30:	48 89 37             	mov    %rsi,(%rdi)
  33:	31 c0                	xor    %eax,%eax
  35:	c3                   	retq   

Disassembly of section .text._ZNSt14_Function_base13_Base_managerINSt8__detail12_CharMatcherINSt7__cxx1112regex_traitsIcEELb1ELb1EEEE10_M_managerERSt9_Any_dataRKS8_St18_Manager_operation:

0000000000000000 <_ZNSt14_Function_base13_Base_managerINSt8__detail12_CharMatcherINSt7__cxx1112regex_traitsIcEELb1ELb1EEEE10_M_managerERSt9_Any_dataRKS8_St18_Manager_operation>:
   0:	83 fa 01             	cmp    $0x1,%edx
   3:	74 2b                	je     30 <_ZNSt14_Function_base13_Base_managerINSt8__detail12_CharMatcherINSt7__cxx1112regex_traitsIcEELb1ELb1EEEE10_M_managerERSt9_Any_dataRKS8_St18_Manager_operation+0x30>
   5:	72 19                	jb     20 <_ZNSt14_Function_base13_Base_managerINSt8__detail12_CharMatcherINSt7__cxx1112regex_traitsIcEELb1ELb1EEEE10_M_managerERSt9_Any_dataRKS8_St18_Manager_operation+0x20>
   7:	83 fa 02             	cmp    $0x2,%edx
   a:	75 07                	jne    13 <_ZNSt14_Function_base13_Base_managerINSt8__detail12_CharMatcherINSt7__cxx1112regex_traitsIcEELb1ELb1EEEE10_M_managerERSt9_Any_dataRKS8_St18_Manager_operation+0x13>
   c:	f3 0f 6f 06          	movdqu (%rsi),%xmm0
  10:	0f 11 07             	movups %xmm0,(%rdi)
  13:	31 c0                	xor    %eax,%eax
  15:	c3                   	retq   
  16:	66 2e 0f 1f 84 00 00 	nopw   %cs:0x0(%rax,%rax,1)
  1d:	00 00 00 
  20:	48 8d 05 00 00 00 00 	lea    0x0(%rip),%rax        # 27 <_ZNSt14_Function_base13_Base_managerINSt8__detail12_CharMatcherINSt7__cxx1112regex_traitsIcEELb1ELb1EEEE10_M_managerERSt9_Any_dataRKS8_St18_Manager_operation+0x27>
  27:	48 89 07             	mov    %rax,(%rdi)
  2a:	31 c0                	xor    %eax,%eax
  2c:	c3                   	retq   
  2d:	0f 1f 00             	nopl   (%rax)
  30:	48 89 37             	mov    %rsi,(%rdi)
  33:	31 c0                	xor    %eax,%eax
  35:	c3                   	retq   

Disassembly of section .text._ZNSt17_Function_handlerIFbcENSt8__detail15_BracketMatcherINSt7__cxx1112regex_traitsIcEELb0ELb0EEEE9_M_invokeERKSt9_Any_dataOc:

0000000000000000 <_ZNSt17_Function_handlerIFbcENSt8__detail15_BracketMatcherINSt7__cxx1112regex_traitsIcEELb0ELb0EEEE9_M_invokeERKSt9_Any_dataOc>:
   0:	0f b6 06             	movzbl (%rsi),%eax
   3:	48 8b 37             	mov    (%rdi),%rsi
   6:	ba 01 00 00 00       	mov    $0x1,%edx
   b:	48 89 c1             	mov    %rax,%rcx
   e:	48 c1 e8 06          	shr    $0x6,%rax
  12:	83 e1 3f             	and    $0x3f,%ecx
  15:	48 d3 e2             	shl    %cl,%rdx
  18:	48 85 54 c6 78       	test   %rdx,0x78(%rsi,%rax,8)
  1d:	0f 95 c0             	setne  %al
  20:	c3                   	retq   

Disassembly of section .text._ZNSt17_Function_handlerIFbcENSt8__detail15_BracketMatcherINSt7__cxx1112regex_traitsIcEELb0ELb1EEEE9_M_invokeERKSt9_Any_dataOc:

0000000000000000 <_ZNSt17_Function_handlerIFbcENSt8__detail15_BracketMatcherINSt7__cxx1112regex_traitsIcEELb0ELb1EEEE9_M_invokeERKSt9_Any_dataOc>:
   0:	0f b6 06             	movzbl (%rsi),%eax
   3:	48 8b 37             	mov    (%rdi),%rsi
   6:	ba 01 00 00 00       	mov    $0x1,%edx
   b:	48 89 c1             	mov    %rax,%rcx
   e:	48 c1 e8 06          	shr    $0x6,%rax
  12:	83 e1 3f             	and    $0x3f,%ecx
  15:	48 d3 e2             	shl    %cl,%rdx
  18:	48 85 94 c6 80 00 00 	test   %rdx,0x80(%rsi,%rax,8)
  1f:	00 
  20:	0f 95 c0             	setne  %al
  23:	c3                   	retq   

Disassembly of section .text._ZNSt17_Function_handlerIFbcENSt8__detail15_BracketMatcherINSt7__cxx1112regex_traitsIcEELb1ELb0EEEE9_M_invokeERKSt9_Any_dataOc:

0000000000000000 <_ZNSt17_Function_handlerIFbcENSt8__detail15_BracketMatcherINSt7__cxx1112regex_traitsIcEELb1ELb0EEEE9_M_invokeERKSt9_Any_dataOc>:
   0:	0f b6 06             	movzbl (%rsi),%eax
   3:	48 8b 37             	mov    (%rdi),%rsi
   6:	ba 01 00 00 00       	mov    $0x1,%edx
   b:	48 89 c1             	mov    %rax,%rcx
   e:	48 c1 e8 06          	shr    $0x6,%rax
  12:	83 e1 3f             	and    $0x3f,%ecx
  15:	48 d3 e2             	shl    %cl,%rdx
  18:	48 85 94 c6 80 00 00 	test   %rdx,0x80(%rsi,%rax,8)
  1f:	00 
  20:	0f 95 c0             	setne  %al
  23:	c3                   	retq   

Disassembly of section .text._ZNSt17_Function_handlerIFbcENSt8__detail15_BracketMatcherINSt7__cxx1112regex_traitsIcEELb1ELb1EEEE9_M_invokeERKSt9_Any_dataOc:

0000000000000000 <_ZNSt17_Function_handlerIFbcENSt8__detail15_BracketMatcherINSt7__cxx1112regex_traitsIcEELb1ELb1EEEE9_M_invokeERKSt9_Any_dataOc>:
   0:	0f b6 06             	movzbl (%rsi),%eax
   3:	48 8b 37             	mov    (%rdi),%rsi
   6:	ba 01 00 00 00       	mov    $0x1,%edx
   b:	48 89 c1             	mov    %rax,%rcx
   e:	48 c1 e8 06          	shr    $0x6,%rax
  12:	83 e1 3f             	and    $0x3f,%ecx
  15:	48 d3 e2             	shl    %cl,%rdx
  18:	48 85 94 c6 80 00 00 	test   %rdx,0x80(%rsi,%rax,8)
  1f:	00 
  20:	0f 95 c0             	setne  %al
  23:	c3                   	retq   

Disassembly of section .text._ZNSt23_Sp_counted_ptr_inplaceINSt8__detail4_NFAINSt7__cxx1112regex_traitsIcEEEESaIS5_ELN9__gnu_cxx12_Lock_policyE2EED2Ev:

0000000000000000 <_ZNSt23_Sp_counted_ptr_inplaceINSt8__detail4_NFAINSt7__cxx1112regex_traitsIcEEEESaIS5_ELN9__gnu_cxx12_Lock_policyE2EED1Ev>:
   0:	f3 c3                	repz retq 

Disassembly of section .text._ZNSt23_Sp_counted_ptr_inplaceINSt8__detail4_NFAINSt7__cxx1112regex_traitsIcEEEESaIS5_ELN9__gnu_cxx12_Lock_policyE2EED0Ev:

0000000000000000 <_ZNSt23_Sp_counted_ptr_inplaceINSt8__detail4_NFAINSt7__cxx1112regex_traitsIcEEEESaIS5_ELN9__gnu_cxx12_Lock_policyE2EED0Ev>:
   0:	be 68 00 00 00       	mov    $0x68,%esi
   5:	e9 00 00 00 00       	jmpq   a <.LC74+0x2>

Disassembly of section .text._ZNSt23_Sp_counted_ptr_inplaceINSt8__detail4_NFAINSt7__cxx1112regex_traitsIcEEEESaIS5_ELN9__gnu_cxx12_Lock_policyE2EE10_M_destroyEv:

0000000000000000 <_ZNSt23_Sp_counted_ptr_inplaceINSt8__detail4_NFAINSt7__cxx1112regex_traitsIcEEEESaIS5_ELN9__gnu_cxx12_Lock_policyE2EE10_M_destroyEv>:
   0:	e9 00 00 00 00       	jmpq   5 <_ZNSt23_Sp_counted_ptr_inplaceINSt8__detail4_NFAINSt7__cxx1112regex_traitsIcEEEESaIS5_ELN9__gnu_cxx12_Lock_policyE2EE10_M_destroyEv+0x5>

Disassembly of section .text._ZNSt23_Sp_counted_ptr_inplaceINSt8__detail4_NFAINSt7__cxx1112regex_traitsIcEEEESaIS5_ELN9__gnu_cxx12_Lock_policyE2EE14_M_get_deleterERKSt9type_info:

0000000000000000 <_ZNSt23_Sp_counted_ptr_inplaceINSt8__detail4_NFAINSt7__cxx1112regex_traitsIcEEEESaIS5_ELN9__gnu_cxx12_Lock_policyE2EE14_M_get_deleterERKSt9type_info>:
   0:	53                   	push   %rbx
   1:	48 89 fb             	mov    %rdi,%rbx
   4:	48 8b 7e 08          	mov    0x8(%rsi),%rdi
   8:	48 8d 35 00 00 00 00 	lea    0x0(%rip),%rsi        # f <_ZNSt23_Sp_counted_ptr_inplaceINSt8__detail4_NFAINSt7__cxx1112regex_traitsIcEEEESaIS5_ELN9__gnu_cxx12_Lock_policyE2EE14_M_get_deleterERKSt9type_info+0xf>
   f:	48 39 f7             	cmp    %rsi,%rdi
  12:	74 0e                	je     22 <_ZNSt23_Sp_counted_ptr_inplaceINSt8__detail4_NFAINSt7__cxx1112regex_traitsIcEEEESaIS5_ELN9__gnu_cxx12_Lock_policyE2EE14_M_get_deleterERKSt9type_info+0x22>
  14:	80 3f 2a             	cmpb   $0x2a,(%rdi)
  17:	74 17                	je     30 <_ZNSt23_Sp_counted_ptr_inplaceINSt8__detail4_NFAINSt7__cxx1112regex_traitsIcEEEESaIS5_ELN9__gnu_cxx12_Lock_policyE2EE14_M_get_deleterERKSt9type_info+0x30>
  19:	e8 00 00 00 00       	callq  1e <_ZNSt23_Sp_counted_ptr_inplaceINSt8__detail4_NFAINSt7__cxx1112regex_traitsIcEEEESaIS5_ELN9__gnu_cxx12_Lock_policyE2EE14_M_get_deleterERKSt9type_info+0x1e>
  1e:	85 c0                	test   %eax,%eax
  20:	75 0e                	jne    30 <_ZNSt23_Sp_counted_ptr_inplaceINSt8__detail4_NFAINSt7__cxx1112regex_traitsIcEEEESaIS5_ELN9__gnu_cxx12_Lock_policyE2EE14_M_get_deleterERKSt9type_info+0x30>
  22:	48 8d 43 10          	lea    0x10(%rbx),%rax
  26:	5b                   	pop    %rbx
  27:	c3                   	retq   
  28:	0f 1f 84 00 00 00 00 	nopl   0x0(%rax,%rax,1)
  2f:	00 
  30:	31 c0                	xor    %eax,%eax
  32:	5b                   	pop    %rbx
  33:	c3                   	retq   

Disassembly of section .text._ZNSt17_Function_handlerIFbcENSt8__detail11_AnyMatcherINSt7__cxx1112regex_traitsIcEELb0ELb0ELb0EEEE9_M_invokeERKSt9_Any_dataOc:

0000000000000000 <_ZNSt17_Function_handlerIFbcENSt8__detail11_AnyMatcherINSt7__cxx1112regex_traitsIcEELb0ELb0ELb0EEEE9_M_invokeERKSt9_Any_dataOc>:
   0:	53                   	push   %rbx
   1:	0f b6 1e             	movzbl (%rsi),%ebx
   4:	0f b6 05 00 00 00 00 	movzbl 0x0(%rip),%eax        # b <_ZNSt17_Function_handlerIFbcENSt8__detail11_AnyMatcherINSt7__cxx1112regex_traitsIcEELb0ELb0ELb0EEEE9_M_invokeERKSt9_Any_dataOc+0xb>
   b:	84 c0                	test   %al,%al
   d:	74 11                	je     20 <_ZNSt17_Function_handlerIFbcENSt8__detail11_AnyMatcherINSt7__cxx1112regex_traitsIcEELb0ELb0ELb0EEEE9_M_invokeERKSt9_Any_dataOc+0x20>
   f:	38 1d 00 00 00 00    	cmp    %bl,0x0(%rip)        # 15 <_ZNSt17_Function_handlerIFbcENSt8__detail11_AnyMatcherINSt7__cxx1112regex_traitsIcEELb0ELb0ELb0EEEE9_M_invokeERKSt9_Any_dataOc+0x15>
  15:	5b                   	pop    %rbx
  16:	0f 95 c0             	setne  %al
  19:	c3                   	retq   
  1a:	66 0f 1f 44 00 00    	nopw   0x0(%rax,%rax,1)
  20:	48 8d 3d 00 00 00 00 	lea    0x0(%rip),%rdi        # 27 <_ZNSt17_Function_handlerIFbcENSt8__detail11_AnyMatcherINSt7__cxx1112regex_traitsIcEELb0ELb0ELb0EEEE9_M_invokeERKSt9_Any_dataOc+0x27>
  27:	e8 00 00 00 00       	callq  2c <_ZNSt17_Function_handlerIFbcENSt8__detail11_AnyMatcherINSt7__cxx1112regex_traitsIcEELb0ELb0ELb0EEEE9_M_invokeERKSt9_Any_dataOc+0x2c>
  2c:	85 c0                	test   %eax,%eax
  2e:	74 df                	je     f <_ZNSt17_Function_handlerIFbcENSt8__detail11_AnyMatcherINSt7__cxx1112regex_traitsIcEELb0ELb0ELb0EEEE9_M_invokeERKSt9_Any_dataOc+0xf>
  30:	48 8d 3d 00 00 00 00 	lea    0x0(%rip),%rdi        # 37 <_ZNSt17_Function_handlerIFbcENSt8__detail11_AnyMatcherINSt7__cxx1112regex_traitsIcEELb0ELb0ELb0EEEE9_M_invokeERKSt9_Any_dataOc+0x37>
  37:	c6 05 00 00 00 00 00 	movb   $0x0,0x0(%rip)        # 3e <_ZNSt17_Function_handlerIFbcENSt8__detail11_AnyMatcherINSt7__cxx1112regex_traitsIcEELb0ELb0ELb0EEEE9_M_invokeERKSt9_Any_dataOc+0x3e>
  3e:	e8 00 00 00 00       	callq  43 <_ZNSt17_Function_handlerIFbcENSt8__detail11_AnyMatcherINSt7__cxx1112regex_traitsIcEELb0ELb0ELb0EEEE9_M_invokeERKSt9_Any_dataOc+0x43>
  43:	38 1d 00 00 00 00    	cmp    %bl,0x0(%rip)        # 49 <_ZNSt17_Function_handlerIFbcENSt8__detail11_AnyMatcherINSt7__cxx1112regex_traitsIcEELb0ELb0ELb0EEEE9_M_invokeERKSt9_Any_dataOc+0x49>
  49:	5b                   	pop    %rbx
  4a:	0f 95 c0             	setne  %al
  4d:	c3                   	retq   

Disassembly of section .text._ZNSt17_Function_handlerIFbcENSt8__detail11_AnyMatcherINSt7__cxx1112regex_traitsIcEELb0ELb0ELb1EEEE9_M_invokeERKSt9_Any_dataOc:

0000000000000000 <_ZNSt17_Function_handlerIFbcENSt8__detail11_AnyMatcherINSt7__cxx1112regex_traitsIcEELb0ELb0ELb1EEEE9_M_invokeERKSt9_Any_dataOc>:
   0:	53                   	push   %rbx
   1:	0f b6 1e             	movzbl (%rsi),%ebx
   4:	0f b6 05 00 00 00 00 	movzbl 0x0(%rip),%eax        # b <_ZNSt17_Function_handlerIFbcENSt8__detail11_AnyMatcherINSt7__cxx1112regex_traitsIcEELb0ELb0ELb1EEEE9_M_invokeERKSt9_Any_dataOc+0xb>
   b:	84 c0                	test   %al,%al
   d:	74 11                	je     20 <_ZNSt17_Function_handlerIFbcENSt8__detail11_AnyMatcherINSt7__cxx1112regex_traitsIcEELb0ELb0ELb1EEEE9_M_invokeERKSt9_Any_dataOc+0x20>
   f:	38 1d 00 00 00 00    	cmp    %bl,0x0(%rip)        # 15 <_ZNSt17_Function_handlerIFbcENSt8__detail11_AnyMatcherINSt7__cxx1112regex_traitsIcEELb0ELb0ELb1EEEE9_M_invokeERKSt9_Any_dataOc+0x15>
  15:	5b                   	pop    %rbx
  16:	0f 95 c0             	setne  %al
  19:	c3                   	retq   
  1a:	66 0f 1f 44 00 00    	nopw   0x0(%rax,%rax,1)
  20:	48 8d 3d 00 00 00 00 	lea    0x0(%rip),%rdi        # 27 <_ZNSt17_Function_handlerIFbcENSt8__detail11_AnyMatcherINSt7__cxx1112regex_traitsIcEELb0ELb0ELb1EEEE9_M_invokeERKSt9_Any_dataOc+0x27>
  27:	e8 00 00 00 00       	callq  2c <_ZNSt17_Function_handlerIFbcENSt8__detail11_AnyMatcherINSt7__cxx1112regex_traitsIcEELb0ELb0ELb1EEEE9_M_invokeERKSt9_Any_dataOc+0x2c>
  2c:	85 c0                	test   %eax,%eax
  2e:	74 df                	je     f <_ZNSt17_Function_handlerIFbcENSt8__detail11_AnyMatcherINSt7__cxx1112regex_traitsIcEELb0ELb0ELb1EEEE9_M_invokeERKSt9_Any_dataOc+0xf>
  30:	48 8d 3d 00 00 00 00 	lea    0x0(%rip),%rdi        # 37 <_ZNSt17_Function_handlerIFbcENSt8__detail11_AnyMatcherINSt7__cxx1112regex_traitsIcEELb0ELb0ELb1EEEE9_M_invokeERKSt9_Any_dataOc+0x37>
  37:	c6 05 00 00 00 00 00 	movb   $0x0,0x0(%rip)        # 3e <_ZNSt17_Function_handlerIFbcENSt8__detail11_AnyMatcherINSt7__cxx1112regex_traitsIcEELb0ELb0ELb1EEEE9_M_invokeERKSt9_Any_dataOc+0x3e>
  3e:	e8 00 00 00 00       	callq  43 <_ZNSt17_Function_handlerIFbcENSt8__detail11_AnyMatcherINSt7__cxx1112regex_traitsIcEELb0ELb0ELb1EEEE9_M_invokeERKSt9_Any_dataOc+0x43>
  43:	38 1d 00 00 00 00    	cmp    %bl,0x0(%rip)        # 49 <_ZNSt17_Function_handlerIFbcENSt8__detail11_AnyMatcherINSt7__cxx1112regex_traitsIcEELb0ELb0ELb1EEEE9_M_invokeERKSt9_Any_dataOc+0x49>
  49:	5b                   	pop    %rbx
  4a:	0f 95 c0             	setne  %al
  4d:	c3                   	retq   

Disassembly of section .text._ZNSt17_Function_handlerIFbcENSt8__detail11_AnyMatcherINSt7__cxx1112regex_traitsIcEELb1ELb1ELb1EEEE9_M_invokeERKSt9_Any_dataOc:

0000000000000000 <_ZNSt17_Function_handlerIFbcENSt8__detail11_AnyMatcherINSt7__cxx1112regex_traitsIcEELb1ELb1ELb1EEEE9_M_invokeERKSt9_Any_dataOc>:
   0:	41 54                	push   %r12
   2:	55                   	push   %rbp
   3:	53                   	push   %rbx
   4:	48 89 fb             	mov    %rdi,%rbx
   7:	48 8b 3f             	mov    (%rdi),%rdi
   a:	0f be 2e             	movsbl (%rsi),%ebp
   d:	e8 00 00 00 00       	callq  12 <_ZNSt17_Function_handlerIFbcENSt8__detail11_AnyMatcherINSt7__cxx1112regex_traitsIcEELb1ELb1ELb1EEEE9_M_invokeERKSt9_Any_dataOc+0x12>
  12:	48 8b 10             	mov    (%rax),%rdx
  15:	48 89 c7             	mov    %rax,%rdi
  18:	89 ee                	mov    %ebp,%esi
  1a:	ff 52 20             	callq  *0x20(%rdx)
  1d:	48 8b 3b             	mov    (%rbx),%rdi
  20:	89 c5                	mov    %eax,%ebp
  22:	e8 00 00 00 00       	callq  27 <_ZNSt17_Function_handlerIFbcENSt8__detail11_AnyMatcherINSt7__cxx1112regex_traitsIcEELb1ELb1ELb1EEEE9_M_invokeERKSt9_Any_dataOc+0x27>
  27:	48 8b 10             	mov    (%rax),%rdx
  2a:	be 0a 00 00 00       	mov    $0xa,%esi
  2f:	48 89 c7             	mov    %rax,%rdi
  32:	ff 52 20             	callq  *0x20(%rdx)
  35:	48 8b 3b             	mov    (%rbx),%rdi
  38:	41 89 c4             	mov    %eax,%r12d
  3b:	e8 00 00 00 00       	callq  40 <_ZNSt17_Function_handlerIFbcENSt8__detail11_AnyMatcherINSt7__cxx1112regex_traitsIcEELb1ELb1ELb1EEEE9_M_invokeERKSt9_Any_dataOc+0x40>
  40:	48 8b 10             	mov    (%rax),%rdx
  43:	be 0d 00 00 00       	mov    $0xd,%esi
  48:	48 89 c7             	mov    %rax,%rdi
  4b:	ff 52 20             	callq  *0x20(%rdx)
  4e:	41 38 ec             	cmp    %bpl,%r12b
  51:	0f 95 c2             	setne  %dl
  54:	40 38 e8             	cmp    %bpl,%al
  57:	0f 95 c0             	setne  %al
  5a:	5b                   	pop    %rbx
  5b:	21 d0                	and    %edx,%eax
  5d:	5d                   	pop    %rbp
  5e:	41 5c                	pop    %r12
  60:	c3                   	retq   

Disassembly of section .text._ZNSt17_Function_handlerIFbcENSt8__detail11_AnyMatcherINSt7__cxx1112regex_traitsIcEELb1ELb1ELb0EEEE9_M_invokeERKSt9_Any_dataOc:

0000000000000000 <_ZNSt17_Function_handlerIFbcENSt8__detail11_AnyMatcherINSt7__cxx1112regex_traitsIcEELb1ELb1ELb0EEEE9_M_invokeERKSt9_Any_dataOc>:
   0:	41 54                	push   %r12
   2:	55                   	push   %rbp
   3:	53                   	push   %rbx
   4:	48 89 fb             	mov    %rdi,%rbx
   7:	48 8b 3f             	mov    (%rdi),%rdi
   a:	0f be 2e             	movsbl (%rsi),%ebp
   d:	e8 00 00 00 00       	callq  12 <_ZNSt17_Function_handlerIFbcENSt8__detail11_AnyMatcherINSt7__cxx1112regex_traitsIcEELb1ELb1ELb0EEEE9_M_invokeERKSt9_Any_dataOc+0x12>
  12:	48 8b 10             	mov    (%rax),%rdx
  15:	48 89 c7             	mov    %rax,%rdi
  18:	89 ee                	mov    %ebp,%esi
  1a:	ff 52 20             	callq  *0x20(%rdx)
  1d:	48 8b 3b             	mov    (%rbx),%rdi
  20:	89 c5                	mov    %eax,%ebp
  22:	e8 00 00 00 00       	callq  27 <_ZNSt17_Function_handlerIFbcENSt8__detail11_AnyMatcherINSt7__cxx1112regex_traitsIcEELb1ELb1ELb0EEEE9_M_invokeERKSt9_Any_dataOc+0x27>
  27:	48 8b 10             	mov    (%rax),%rdx
  2a:	be 0a 00 00 00       	mov    $0xa,%esi
  2f:	48 89 c7             	mov    %rax,%rdi
  32:	ff 52 20             	callq  *0x20(%rdx)
  35:	48 8b 3b             	mov    (%rbx),%rdi
  38:	41 89 c4             	mov    %eax,%r12d
  3b:	e8 00 00 00 00       	callq  40 <_ZNSt17_Function_handlerIFbcENSt8__detail11_AnyMatcherINSt7__cxx1112regex_traitsIcEELb1ELb1ELb0EEEE9_M_invokeERKSt9_Any_dataOc+0x40>
  40:	48 8b 10             	mov    (%rax),%rdx
  43:	be 0d 00 00 00       	mov    $0xd,%esi
  48:	48 89 c7             	mov    %rax,%rdi
  4b:	ff 52 20             	callq  *0x20(%rdx)
  4e:	41 38 ec             	cmp    %bpl,%r12b
  51:	0f 95 c2             	setne  %dl
  54:	40 38 e8             	cmp    %bpl,%al
  57:	0f 95 c0             	setne  %al
  5a:	5b                   	pop    %rbx
  5b:	21 d0                	and    %edx,%eax
  5d:	5d                   	pop    %rbp
  5e:	41 5c                	pop    %r12
  60:	c3                   	retq   

Disassembly of section .text._ZNSt17_Function_handlerIFbcENSt8__detail12_CharMatcherINSt7__cxx1112regex_traitsIcEELb1ELb1EEEE9_M_invokeERKSt9_Any_dataOc:

0000000000000000 <_ZNSt17_Function_handlerIFbcENSt8__detail12_CharMatcherINSt7__cxx1112regex_traitsIcEELb1ELb1EEEE9_M_invokeERKSt9_Any_dataOc>:
   0:	55                   	push   %rbp
   1:	53                   	push   %rbx
   2:	48 83 ec 08          	sub    $0x8,%rsp
   6:	0f b6 5f 08          	movzbl 0x8(%rdi),%ebx
   a:	48 8b 3f             	mov    (%rdi),%rdi
   d:	0f be 2e             	movsbl (%rsi),%ebp
  10:	e8 00 00 00 00       	callq  15 <_ZNSt17_Function_handlerIFbcENSt8__detail12_CharMatcherINSt7__cxx1112regex_traitsIcEELb1ELb1EEEE9_M_invokeERKSt9_Any_dataOc+0x15>
  15:	48 8b 10             	mov    (%rax),%rdx
  18:	48 89 c7             	mov    %rax,%rdi
  1b:	89 ee                	mov    %ebp,%esi
  1d:	ff 52 20             	callq  *0x20(%rdx)
  20:	38 c3                	cmp    %al,%bl
  22:	0f 94 c0             	sete   %al
  25:	48 83 c4 08          	add    $0x8,%rsp
  29:	5b                   	pop    %rbx
  2a:	5d                   	pop    %rbp
  2b:	c3                   	retq   

Disassembly of section .text._ZNSt17_Function_handlerIFbcENSt8__detail12_CharMatcherINSt7__cxx1112regex_traitsIcEELb1ELb0EEEE9_M_invokeERKSt9_Any_dataOc:

0000000000000000 <_ZNSt17_Function_handlerIFbcENSt8__detail12_CharMatcherINSt7__cxx1112regex_traitsIcEELb1ELb0EEEE9_M_invokeERKSt9_Any_dataOc>:
   0:	55                   	push   %rbp
   1:	53                   	push   %rbx
   2:	48 83 ec 08          	sub    $0x8,%rsp
   6:	0f b6 5f 08          	movzbl 0x8(%rdi),%ebx
   a:	48 8b 3f             	mov    (%rdi),%rdi
   d:	0f be 2e             	movsbl (%rsi),%ebp
  10:	e8 00 00 00 00       	callq  15 <_ZNSt17_Function_handlerIFbcENSt8__detail12_CharMatcherINSt7__cxx1112regex_traitsIcEELb1ELb0EEEE9_M_invokeERKSt9_Any_dataOc+0x15>
  15:	48 8b 10             	mov    (%rax),%rdx
  18:	48 89 c7             	mov    %rax,%rdi
  1b:	89 ee                	mov    %ebp,%esi
  1d:	ff 52 20             	callq  *0x20(%rdx)
  20:	38 c3                	cmp    %al,%bl
  22:	0f 94 c0             	sete   %al
  25:	48 83 c4 08          	add    $0x8,%rsp
  29:	5b                   	pop    %rbx
  2a:	5d                   	pop    %rbp
  2b:	c3                   	retq   

Disassembly of section .text._ZNKSt7__cxx1114regex_iteratorIN9__gnu_cxx17__normal_iteratorIPKcNS_12basic_stringIcSt11char_traitsIcESaIcEEEEEcNS_12regex_traitsIcEEEeqERKSD_.part.239:

0000000000000000 <_ZNKSt7__cxx1114regex_iteratorIN9__gnu_cxx17__normal_iteratorIPKcNS_12basic_stringIcSt11char_traitsIcESaIcEEEEEcNS_12regex_traitsIcEEEeqERKSD_.part.239>:
   0:	41 57                	push   %r15
   2:	41 56                	push   %r14
   4:	41 55                	push   %r13
   6:	41 54                	push   %r12
   8:	55                   	push   %rbp
   9:	53                   	push   %rbx
   a:	48 83 ec 68          	sub    $0x68,%rsp
   e:	48 8b 56 28          	mov    0x28(%rsi),%rdx
  12:	48 8b 5e 20          	mov    0x20(%rsi),%rbx
  16:	64 48 8b 04 25 28 00 	mov    %fs:0x28,%rax
  1d:	00 00 
  1f:	48 89 44 24 58       	mov    %rax,0x58(%rsp)
  24:	31 c0                	xor    %eax,%eax
  26:	48 89 d0             	mov    %rdx,%rax
  29:	48 29 d8             	sub    %rbx,%rax
  2c:	48 39 da             	cmp    %rbx,%rdx
  2f:	0f 84 f3 01 00 00    	je     228 <_ZNKSt7__cxx1114regex_iteratorIN9__gnu_cxx17__normal_iteratorIPKcNS_12basic_stringIcSt11char_traitsIcESaIcEEEEEcNS_12regex_traitsIcEEEeqERKSD_.part.239+0x228>
  35:	48 83 f8 48          	cmp    $0x48,%rax
  39:	0f 84 e9 01 00 00    	je     228 <_ZNKSt7__cxx1114regex_iteratorIN9__gnu_cxx17__normal_iteratorIPKcNS_12basic_stringIcSt11char_traitsIcESaIcEEEEEcNS_12regex_traitsIcEEEeqERKSD_.part.239+0x228>
  3f:	48 8b 4f 28          	mov    0x28(%rdi),%rcx
  43:	48 8b 47 20          	mov    0x20(%rdi),%rax
  47:	48 89 ca             	mov    %rcx,%rdx
  4a:	48 29 c2             	sub    %rax,%rdx
  4d:	48 39 c1             	cmp    %rax,%rcx
  50:	0f 84 ca 00 00 00    	je     120 <_ZNKSt7__cxx1114regex_iteratorIN9__gnu_cxx17__normal_iteratorIPKcNS_12basic_stringIcSt11char_traitsIcESaIcEEEEEcNS_12regex_traitsIcEEEeqERKSD_.part.239+0x120>
  56:	48 83 fa 48          	cmp    $0x48,%rdx
  5a:	0f 84 c0 00 00 00    	je     120 <_ZNKSt7__cxx1114regex_iteratorIN9__gnu_cxx17__normal_iteratorIPKcNS_12basic_stringIcSt11char_traitsIcESaIcEEEEEcNS_12regex_traitsIcEEEeqERKSD_.part.239+0x120>
  60:	80 78 10 00          	cmpb   $0x0,0x10(%rax)
  64:	0f 85 c9 00 00 00    	jne    133 <_ZNKSt7__cxx1114regex_iteratorIN9__gnu_cxx17__normal_iteratorIPKcNS_12basic_stringIcSt11char_traitsIcESaIcEEEEEcNS_12regex_traitsIcEEEeqERKSD_.part.239+0x133>
  6a:	c6 44 24 40 00       	movb   $0x0,0x40(%rsp)
  6f:	44 0f b6 6b 10       	movzbl 0x10(%rbx),%r13d
  74:	48 8d 6c 24 30       	lea    0x30(%rsp),%rbp
  79:	48 c7 44 24 38 00 00 	movq   $0x0,0x38(%rsp)
  80:	00 00 
  82:	48 8d 45 10          	lea    0x10(%rbp),%rax
  86:	45 84 ed             	test   %r13b,%r13b
  89:	48 89 44 24 30       	mov    %rax,0x30(%rsp)
  8e:	0f 85 f1 00 00 00    	jne    185 <_ZNKSt7__cxx1114regex_iteratorIN9__gnu_cxx17__normal_iteratorIPKcNS_12basic_stringIcSt11char_traitsIcESaIcEEEEEcNS_12regex_traitsIcEEEeqERKSD_.part.239+0x185>
  94:	4c 8d 64 24 10       	lea    0x10(%rsp),%r12
  99:	48 8b 44 24 38       	mov    0x38(%rsp),%rax
  9e:	48 c7 44 24 18 00 00 	movq   $0x0,0x18(%rsp)
  a5:	00 00 
  a7:	c6 44 24 20 00       	movb   $0x0,0x20(%rsp)
  ac:	49 8d 5c 24 10       	lea    0x10(%r12),%rbx
  b1:	48 3d ff ff ff 7f    	cmp    $0x7fffffff,%rax
  b7:	48 89 5c 24 10       	mov    %rbx,0x10(%rsp)
  bc:	7f 1f                	jg     dd <_ZNKSt7__cxx1114regex_iteratorIN9__gnu_cxx17__normal_iteratorIPKcNS_12basic_stringIcSt11char_traitsIcESaIcEEEEEcNS_12regex_traitsIcEEEeqERKSD_.part.239+0xdd>
  be:	48 3d 00 00 00 80    	cmp    $0xffffffff80000000,%rax
  c4:	7c 17                	jl     dd <_ZNKSt7__cxx1114regex_iteratorIN9__gnu_cxx17__normal_iteratorIPKcNS_12basic_stringIcSt11char_traitsIcESaIcEEEEEcNS_12regex_traitsIcEEEeqERKSD_.part.239+0xdd>
  c6:	85 c0                	test   %eax,%eax
  c8:	41 0f 94 c5          	sete   %r13b
  cc:	49 83 c4 10          	add    $0x10,%r12
  d0:	4c 39 e3             	cmp    %r12,%rbx
  d3:	74 08                	je     dd <_ZNKSt7__cxx1114regex_iteratorIN9__gnu_cxx17__normal_iteratorIPKcNS_12basic_stringIcSt11char_traitsIcESaIcEEEEEcNS_12regex_traitsIcEEEeqERKSD_.part.239+0xdd>
  d5:	48 89 df             	mov    %rbx,%rdi
  d8:	e8 00 00 00 00       	callq  dd <_ZNKSt7__cxx1114regex_iteratorIN9__gnu_cxx17__normal_iteratorIPKcNS_12basic_stringIcSt11char_traitsIcESaIcEEEEEcNS_12regex_traitsIcEEEeqERKSD_.part.239+0xdd>
  dd:	48 8b 7c 24 30       	mov    0x30(%rsp),%rdi
  e2:	48 83 c5 10          	add    $0x10,%rbp
  e6:	48 39 ef             	cmp    %rbp,%rdi
  e9:	74 05                	je     f0 <_ZNKSt7__cxx1114regex_iteratorIN9__gnu_cxx17__normal_iteratorIPKcNS_12basic_stringIcSt11char_traitsIcESaIcEEEEEcNS_12regex_traitsIcEEEeqERKSD_.part.239+0xf0>
  eb:	e8 00 00 00 00       	callq  f0 <_ZNKSt7__cxx1114regex_iteratorIN9__gnu_cxx17__normal_iteratorIPKcNS_12basic_stringIcSt11char_traitsIcESaIcEEEEEcNS_12regex_traitsIcEEEeqERKSD_.part.239+0xf0>
  f0:	48 8b 4c 24 58       	mov    0x58(%rsp),%rcx
  f5:	64 48 33 0c 25 28 00 	xor    %fs:0x28,%rcx
  fc:	00 00 
  fe:	44 89 e8             	mov    %r13d,%eax
 101:	0f 85 d4 01 00 00    	jne    2db <_ZNKSt7__cxx1114regex_iteratorIN9__gnu_cxx17__normal_iteratorIPKcNS_12basic_stringIcSt11char_traitsIcESaIcEEEEEcNS_12regex_traitsIcEEEeqERKSD_.part.239+0x2db>
 107:	48 83 c4 68          	add    $0x68,%rsp
 10b:	5b                   	pop    %rbx
 10c:	5d                   	pop    %rbp
 10d:	41 5c                	pop    %r12
 10f:	41 5d                	pop    %r13
 111:	41 5e                	pop    %r14
 113:	41 5f                	pop    %r15
 115:	c3                   	retq   
 116:	66 2e 0f 1f 84 00 00 	nopw   %cs:0x0(%rax,%rax,1)
 11d:	00 00 00 
 120:	48 c1 fa 03          	sar    $0x3,%rdx
 124:	48 8d 44 d0 b8       	lea    -0x48(%rax,%rdx,8),%rax
 129:	80 78 10 00          	cmpb   $0x0,0x10(%rax)
 12d:	0f 84 37 ff ff ff    	je     6a <_ZNKSt7__cxx1114regex_iteratorIN9__gnu_cxx17__normal_iteratorIPKcNS_12basic_stringIcSt11char_traitsIcESaIcEEEEEcNS_12regex_traitsIcEEEeqERKSD_.part.239+0x6a>
 133:	4c 8b 28             	mov    (%rax),%r13
 136:	4c 8b 60 08          	mov    0x8(%rax),%r12
 13a:	48 8d 6c 24 30       	lea    0x30(%rsp),%rbp
 13f:	48 8d 45 10          	lea    0x10(%rbp),%rax
 143:	4d 29 ec             	sub    %r13,%r12
 146:	49 83 fc 0f          	cmp    $0xf,%r12
 14a:	48 89 44 24 30       	mov    %rax,0x30(%rsp)
 14f:	4c 89 64 24 08       	mov    %r12,0x8(%rsp)
 154:	0f 87 26 01 00 00    	ja     280 <_ZNKSt7__cxx1114regex_iteratorIN9__gnu_cxx17__normal_iteratorIPKcNS_12basic_stringIcSt11char_traitsIcESaIcEEEEEcNS_12regex_traitsIcEEEeqERKSD_.part.239+0x280>
 15a:	49 83 fc 01          	cmp    $0x1,%r12
 15e:	0f 85 5c 01 00 00    	jne    2c0 <_ZNKSt7__cxx1114regex_iteratorIN9__gnu_cxx17__normal_iteratorIPKcNS_12basic_stringIcSt11char_traitsIcESaIcEEEEEcNS_12regex_traitsIcEEEeqERKSD_.part.239+0x2c0>
 164:	41 0f b6 55 00       	movzbl 0x0(%r13),%edx
 169:	88 54 24 40          	mov    %dl,0x40(%rsp)
 16d:	4c 89 64 24 38       	mov    %r12,0x38(%rsp)
 172:	42 c6 04 20 00       	movb   $0x0,(%rax,%r12,1)
 177:	44 0f b6 6b 10       	movzbl 0x10(%rbx),%r13d
 17c:	45 84 ed             	test   %r13b,%r13b
 17f:	0f 84 0f ff ff ff    	je     94 <_ZNKSt7__cxx1114regex_iteratorIN9__gnu_cxx17__normal_iteratorIPKcNS_12basic_stringIcSt11char_traitsIcESaIcEEEEEcNS_12regex_traitsIcEEEeqERKSD_.part.239+0x94>
 185:	4c 8b 2b             	mov    (%rbx),%r13
 188:	48 8b 5b 08          	mov    0x8(%rbx),%rbx
 18c:	4c 8d 64 24 10       	lea    0x10(%rsp),%r12
 191:	49 8d 44 24 10       	lea    0x10(%r12),%rax
 196:	4c 29 eb             	sub    %r13,%rbx
 199:	48 83 fb 0f          	cmp    $0xf,%rbx
 19d:	48 89 44 24 10       	mov    %rax,0x10(%rsp)
 1a2:	48 89 5c 24 08       	mov    %rbx,0x8(%rsp)
 1a7:	0f 87 93 00 00 00    	ja     240 <_ZNKSt7__cxx1114regex_iteratorIN9__gnu_cxx17__normal_iteratorIPKcNS_12basic_stringIcSt11char_traitsIcESaIcEEEEEcNS_12regex_traitsIcEEEeqERKSD_.part.239+0x240>
 1ad:	48 83 fb 01          	cmp    $0x1,%rbx
 1b1:	0f 85 19 01 00 00    	jne    2d0 <_ZNKSt7__cxx1114regex_iteratorIN9__gnu_cxx17__normal_iteratorIPKcNS_12basic_stringIcSt11char_traitsIcESaIcEEEEEcNS_12regex_traitsIcEEEeqERKSD_.part.239+0x2d0>
 1b7:	41 0f b6 55 00       	movzbl 0x0(%r13),%edx
 1bc:	88 54 24 20          	mov    %dl,0x20(%rsp)
 1c0:	48 89 5c 24 18       	mov    %rbx,0x18(%rsp)
 1c5:	c6 04 18 00          	movb   $0x0,(%rax,%rbx,1)
 1c9:	4c 8b 74 24 38       	mov    0x38(%rsp),%r14
 1ce:	4c 8b 7c 24 18       	mov    0x18(%rsp),%r15
 1d3:	48 8b 5c 24 10       	mov    0x10(%rsp),%rbx
 1d8:	48 8b 7c 24 30       	mov    0x30(%rsp),%rdi
 1dd:	4d 39 fe             	cmp    %r15,%r14
 1e0:	4c 89 fa             	mov    %r15,%rdx
 1e3:	49 0f 46 d6          	cmovbe %r14,%rdx
 1e7:	48 85 d2             	test   %rdx,%rdx
 1ea:	74 13                	je     1ff <_ZNKSt7__cxx1114regex_iteratorIN9__gnu_cxx17__normal_iteratorIPKcNS_12basic_stringIcSt11char_traitsIcESaIcEEEEEcNS_12regex_traitsIcEEEeqERKSD_.part.239+0x1ff>
 1ec:	48 89 de             	mov    %rbx,%rsi
 1ef:	45 31 ed             	xor    %r13d,%r13d
 1f2:	e8 00 00 00 00       	callq  1f7 <_ZNKSt7__cxx1114regex_iteratorIN9__gnu_cxx17__normal_iteratorIPKcNS_12basic_stringIcSt11char_traitsIcESaIcEEEEEcNS_12regex_traitsIcEEEeqERKSD_.part.239+0x1f7>
 1f7:	85 c0                	test   %eax,%eax
 1f9:	0f 85 cd fe ff ff    	jne    cc <_ZNKSt7__cxx1114regex_iteratorIN9__gnu_cxx17__normal_iteratorIPKcNS_12basic_stringIcSt11char_traitsIcESaIcEEEEEcNS_12regex_traitsIcEEEeqERKSD_.part.239+0xcc>
 1ff:	4c 89 f0             	mov    %r14,%rax
 202:	45 31 ed             	xor    %r13d,%r13d
 205:	4c 29 f8             	sub    %r15,%rax
 208:	48 3d ff ff ff 7f    	cmp    $0x7fffffff,%rax
 20e:	0f 8f b8 fe ff ff    	jg     cc <_ZNKSt7__cxx1114regex_iteratorIN9__gnu_cxx17__normal_iteratorIPKcNS_12basic_stringIcSt11char_traitsIcESaIcEEEEEcNS_12regex_traitsIcEEEeqERKSD_.part.239+0xcc>
 214:	48 3d 00 00 00 80    	cmp    $0xffffffff80000000,%rax
 21a:	0f 8d a6 fe ff ff    	jge    c6 <_ZNKSt7__cxx1114regex_iteratorIN9__gnu_cxx17__normal_iteratorIPKcNS_12basic_stringIcSt11char_traitsIcESaIcEEEEEcNS_12regex_traitsIcEEEeqERKSD_.part.239+0xc6>
 220:	e9 a7 fe ff ff       	jmpq   cc <_ZNKSt7__cxx1114regex_iteratorIN9__gnu_cxx17__normal_iteratorIPKcNS_12basic_stringIcSt11char_traitsIcESaIcEEEEEcNS_12regex_traitsIcEEEeqERKSD_.part.239+0xcc>
 225:	0f 1f 00             	nopl   (%rax)
 228:	48 c1 f8 03          	sar    $0x3,%rax
 22c:	48 8d 5c c3 b8       	lea    -0x48(%rbx,%rax,8),%rbx
 231:	e9 09 fe ff ff       	jmpq   3f <_ZNKSt7__cxx1114regex_iteratorIN9__gnu_cxx17__normal_iteratorIPKcNS_12basic_stringIcSt11char_traitsIcESaIcEEEEEcNS_12regex_traitsIcEEEeqERKSD_.part.239+0x3f>
 236:	66 2e 0f 1f 84 00 00 	nopw   %cs:0x0(%rax,%rax,1)
 23d:	00 00 00 
 240:	48 8d 74 24 08       	lea    0x8(%rsp),%rsi
 245:	31 d2                	xor    %edx,%edx
 247:	4c 89 e7             	mov    %r12,%rdi
 24a:	e8 00 00 00 00       	callq  24f <_ZNKSt7__cxx1114regex_iteratorIN9__gnu_cxx17__normal_iteratorIPKcNS_12basic_stringIcSt11char_traitsIcESaIcEEEEEcNS_12regex_traitsIcEEEeqERKSD_.part.239+0x24f>
 24f:	48 8b 54 24 08       	mov    0x8(%rsp),%rdx
 254:	48 89 44 24 10       	mov    %rax,0x10(%rsp)
 259:	48 89 54 24 20       	mov    %rdx,0x20(%rsp)
 25e:	48 89 da             	mov    %rbx,%rdx
 261:	4c 89 ee             	mov    %r13,%rsi
 264:	48 89 c7             	mov    %rax,%rdi
 267:	e8 00 00 00 00       	callq  26c <_ZNKSt7__cxx1114regex_iteratorIN9__gnu_cxx17__normal_iteratorIPKcNS_12basic_stringIcSt11char_traitsIcESaIcEEEEEcNS_12regex_traitsIcEEEeqERKSD_.part.239+0x26c>
 26c:	48 8b 5c 24 08       	mov    0x8(%rsp),%rbx
 271:	48 8b 44 24 10       	mov    0x10(%rsp),%rax
 276:	e9 45 ff ff ff       	jmpq   1c0 <_ZNKSt7__cxx1114regex_iteratorIN9__gnu_cxx17__normal_iteratorIPKcNS_12basic_stringIcSt11char_traitsIcESaIcEEEEEcNS_12regex_traitsIcEEEeqERKSD_.part.239+0x1c0>
 27b:	0f 1f 44 00 00       	nopl   0x0(%rax,%rax,1)
 280:	48 8d 74 24 08       	lea    0x8(%rsp),%rsi
 285:	31 d2                	xor    %edx,%edx
 287:	48 89 ef             	mov    %rbp,%rdi
 28a:	e8 00 00 00 00       	callq  28f <_ZNKSt7__cxx1114regex_iteratorIN9__gnu_cxx17__normal_iteratorIPKcNS_12basic_stringIcSt11char_traitsIcESaIcEEEEEcNS_12regex_traitsIcEEEeqERKSD_.part.239+0x28f>
 28f:	48 8b 54 24 08       	mov    0x8(%rsp),%rdx
 294:	48 89 44 24 30       	mov    %rax,0x30(%rsp)
 299:	48 89 54 24 40       	mov    %rdx,0x40(%rsp)
 29e:	4c 89 e2             	mov    %r12,%rdx
 2a1:	4c 89 ee             	mov    %r13,%rsi
 2a4:	48 89 c7             	mov    %rax,%rdi
 2a7:	e8 00 00 00 00       	callq  2ac <_ZNKSt7__cxx1114regex_iteratorIN9__gnu_cxx17__normal_iteratorIPKcNS_12basic_stringIcSt11char_traitsIcESaIcEEEEEcNS_12regex_traitsIcEEEeqERKSD_.part.239+0x2ac>
 2ac:	4c 8b 64 24 08       	mov    0x8(%rsp),%r12
 2b1:	48 8b 44 24 30       	mov    0x30(%rsp),%rax
 2b6:	e9 b2 fe ff ff       	jmpq   16d <_ZNKSt7__cxx1114regex_iteratorIN9__gnu_cxx17__normal_iteratorIPKcNS_12basic_stringIcSt11char_traitsIcESaIcEEEEEcNS_12regex_traitsIcEEEeqERKSD_.part.239+0x16d>
 2bb:	0f 1f 44 00 00       	nopl   0x0(%rax,%rax,1)
 2c0:	4d 85 e4             	test   %r12,%r12
 2c3:	0f 84 a4 fe ff ff    	je     16d <_ZNKSt7__cxx1114regex_iteratorIN9__gnu_cxx17__normal_iteratorIPKcNS_12basic_stringIcSt11char_traitsIcESaIcEEEEEcNS_12regex_traitsIcEEEeqERKSD_.part.239+0x16d>
 2c9:	eb d3                	jmp    29e <_ZNKSt7__cxx1114regex_iteratorIN9__gnu_cxx17__normal_iteratorIPKcNS_12basic_stringIcSt11char_traitsIcESaIcEEEEEcNS_12regex_traitsIcEEEeqERKSD_.part.239+0x29e>
 2cb:	0f 1f 44 00 00       	nopl   0x0(%rax,%rax,1)
 2d0:	48 85 db             	test   %rbx,%rbx
 2d3:	0f 84 e7 fe ff ff    	je     1c0 <_ZNKSt7__cxx1114regex_iteratorIN9__gnu_cxx17__normal_iteratorIPKcNS_12basic_stringIcSt11char_traitsIcESaIcEEEEEcNS_12regex_traitsIcEEEeqERKSD_.part.239+0x1c0>
 2d9:	eb 83                	jmp    25e <_ZNKSt7__cxx1114regex_iteratorIN9__gnu_cxx17__normal_iteratorIPKcNS_12basic_stringIcSt11char_traitsIcESaIcEEEEEcNS_12regex_traitsIcEEEeqERKSD_.part.239+0x25e>
 2db:	e8 00 00 00 00       	callq  2e0 <_ZNKSt7__cxx1114regex_iteratorIN9__gnu_cxx17__normal_iteratorIPKcNS_12basic_stringIcSt11char_traitsIcESaIcEEEEEcNS_12regex_traitsIcEEEeqERKSD_.part.239+0x2e0>
 2e0:	48 8b 7c 24 30       	mov    0x30(%rsp),%rdi
 2e5:	48 83 c5 10          	add    $0x10,%rbp
 2e9:	48 89 c3             	mov    %rax,%rbx
 2ec:	48 39 ef             	cmp    %rbp,%rdi
 2ef:	74 05                	je     2f6 <_ZNKSt7__cxx1114regex_iteratorIN9__gnu_cxx17__normal_iteratorIPKcNS_12basic_stringIcSt11char_traitsIcESaIcEEEEEcNS_12regex_traitsIcEEEeqERKSD_.part.239+0x2f6>
 2f1:	e8 00 00 00 00       	callq  2f6 <_ZNKSt7__cxx1114regex_iteratorIN9__gnu_cxx17__normal_iteratorIPKcNS_12basic_stringIcSt11char_traitsIcESaIcEEEEEcNS_12regex_traitsIcEEEeqERKSD_.part.239+0x2f6>
 2f6:	48 89 df             	mov    %rbx,%rdi
 2f9:	e8 00 00 00 00       	callq  2fe <_ZNSt14basic_ofstreamIcSt11char_traitsIcEE4openERKNSt7__cxx1112basic_stringIcS1_SaIcEEESt13_Ios_Openmode.constprop.537+0x4e>

Disassembly of section .text._ZNSt17_Function_handlerIFbcENSt8__detail11_AnyMatcherINSt7__cxx1112regex_traitsIcEELb0ELb1ELb1EEEE9_M_invokeERKSt9_Any_dataOc:

0000000000000000 <_ZNSt17_Function_handlerIFbcENSt8__detail11_AnyMatcherINSt7__cxx1112regex_traitsIcEELb0ELb1ELb1EEEE9_M_invokeERKSt9_Any_dataOc>:
   0:	55                   	push   %rbp
   1:	53                   	push   %rbx
   2:	48 89 fb             	mov    %rdi,%rbx
   5:	48 83 ec 08          	sub    $0x8,%rsp
   9:	0f be 2e             	movsbl (%rsi),%ebp
   c:	0f b6 05 00 00 00 00 	movzbl 0x0(%rip),%eax        # 13 <_ZNSt17_Function_handlerIFbcENSt8__detail11_AnyMatcherINSt7__cxx1112regex_traitsIcEELb0ELb1ELb1EEEE9_M_invokeERKSt9_Any_dataOc+0x13>
  13:	84 c0                	test   %al,%al
  15:	75 10                	jne    27 <_ZNSt17_Function_handlerIFbcENSt8__detail11_AnyMatcherINSt7__cxx1112regex_traitsIcEELb0ELb1ELb1EEEE9_M_invokeERKSt9_Any_dataOc+0x27>
  17:	48 8d 3d 00 00 00 00 	lea    0x0(%rip),%rdi        # 1e <_ZNSt17_Function_handlerIFbcENSt8__detail11_AnyMatcherINSt7__cxx1112regex_traitsIcEELb0ELb1ELb1EEEE9_M_invokeERKSt9_Any_dataOc+0x1e>
  1e:	e8 00 00 00 00       	callq  23 <_ZNSt17_Function_handlerIFbcENSt8__detail11_AnyMatcherINSt7__cxx1112regex_traitsIcEELb0ELb1ELb1EEEE9_M_invokeERKSt9_Any_dataOc+0x23>
  23:	85 c0                	test   %eax,%eax
  25:	75 29                	jne    50 <_ZNSt17_Function_handlerIFbcENSt8__detail11_AnyMatcherINSt7__cxx1112regex_traitsIcEELb0ELb1ELb1EEEE9_M_invokeERKSt9_Any_dataOc+0x50>
  27:	48 8b 3b             	mov    (%rbx),%rdi
  2a:	e8 00 00 00 00       	callq  2f <_ZNSt17_Function_handlerIFbcENSt8__detail11_AnyMatcherINSt7__cxx1112regex_traitsIcEELb0ELb1ELb1EEEE9_M_invokeERKSt9_Any_dataOc+0x2f>
  2f:	48 8b 10             	mov    (%rax),%rdx
  32:	89 ee                	mov    %ebp,%esi
  34:	48 89 c7             	mov    %rax,%rdi
  37:	ff 52 20             	callq  *0x20(%rdx)
  3a:	38 05 00 00 00 00    	cmp    %al,0x0(%rip)        # 40 <_ZNSt17_Function_handlerIFbcENSt8__detail11_AnyMatcherINSt7__cxx1112regex_traitsIcEELb0ELb1ELb1EEEE9_M_invokeERKSt9_Any_dataOc+0x40>
  40:	0f 95 c0             	setne  %al
  43:	48 83 c4 08          	add    $0x8,%rsp
  47:	5b                   	pop    %rbx
  48:	5d                   	pop    %rbp
  49:	c3                   	retq   
  4a:	66 0f 1f 44 00 00    	nopw   0x0(%rax,%rax,1)
  50:	48 8b 3b             	mov    (%rbx),%rdi
  53:	e8 00 00 00 00       	callq  58 <_ZNSt17_Function_handlerIFbcENSt8__detail11_AnyMatcherINSt7__cxx1112regex_traitsIcEELb0ELb1ELb1EEEE9_M_invokeERKSt9_Any_dataOc+0x58>
  58:	48 8b 10             	mov    (%rax),%rdx
  5b:	31 f6                	xor    %esi,%esi
  5d:	48 89 c7             	mov    %rax,%rdi
  60:	ff 52 20             	callq  *0x20(%rdx)
  63:	48 8d 3d 00 00 00 00 	lea    0x0(%rip),%rdi        # 6a <_ZNSt17_Function_handlerIFbcENSt8__detail11_AnyMatcherINSt7__cxx1112regex_traitsIcEELb0ELb1ELb1EEEE9_M_invokeERKSt9_Any_dataOc+0x6a>
  6a:	88 05 00 00 00 00    	mov    %al,0x0(%rip)        # 70 <_ZNSt17_Function_handlerIFbcENSt8__detail11_AnyMatcherINSt7__cxx1112regex_traitsIcEELb0ELb1ELb1EEEE9_M_invokeERKSt9_Any_dataOc+0x70>
  70:	e8 00 00 00 00       	callq  75 <_ZNSt17_Function_handlerIFbcENSt8__detail11_AnyMatcherINSt7__cxx1112regex_traitsIcEELb0ELb1ELb1EEEE9_M_invokeERKSt9_Any_dataOc+0x75>
  75:	eb b0                	jmp    27 <_ZNSt17_Function_handlerIFbcENSt8__detail11_AnyMatcherINSt7__cxx1112regex_traitsIcEELb0ELb1ELb1EEEE9_M_invokeERKSt9_Any_dataOc+0x27>
  77:	48 8d 3d 00 00 00 00 	lea    0x0(%rip),%rdi        # 7e <_ZNSt17_Function_handlerIFbcENSt8__detail11_AnyMatcherINSt7__cxx1112regex_traitsIcEELb0ELb1ELb1EEEE9_M_invokeERKSt9_Any_dataOc+0x7e>
  7e:	48 89 c3             	mov    %rax,%rbx
  81:	e8 00 00 00 00       	callq  86 <_ZNSt17_Function_handlerIFbcENSt8__detail11_AnyMatcherINSt7__cxx1112regex_traitsIcEELb0ELb1ELb1EEEE9_M_invokeERKSt9_Any_dataOc+0x86>
  86:	48 89 df             	mov    %rbx,%rdi
  89:	e8 00 00 00 00       	callq  8e <.LC31+0x5>

Disassembly of section .text._ZNSt17_Function_handlerIFbcENSt8__detail11_AnyMatcherINSt7__cxx1112regex_traitsIcEELb0ELb1ELb0EEEE9_M_invokeERKSt9_Any_dataOc:

0000000000000000 <_ZNSt17_Function_handlerIFbcENSt8__detail11_AnyMatcherINSt7__cxx1112regex_traitsIcEELb0ELb1ELb0EEEE9_M_invokeERKSt9_Any_dataOc>:
   0:	55                   	push   %rbp
   1:	53                   	push   %rbx
   2:	48 89 fb             	mov    %rdi,%rbx
   5:	48 83 ec 08          	sub    $0x8,%rsp
   9:	0f be 2e             	movsbl (%rsi),%ebp
   c:	0f b6 05 00 00 00 00 	movzbl 0x0(%rip),%eax        # 13 <_ZNSt17_Function_handlerIFbcENSt8__detail11_AnyMatcherINSt7__cxx1112regex_traitsIcEELb0ELb1ELb0EEEE9_M_invokeERKSt9_Any_dataOc+0x13>
  13:	84 c0                	test   %al,%al
  15:	75 10                	jne    27 <_ZNSt17_Function_handlerIFbcENSt8__detail11_AnyMatcherINSt7__cxx1112regex_traitsIcEELb0ELb1ELb0EEEE9_M_invokeERKSt9_Any_dataOc+0x27>
  17:	48 8d 3d 00 00 00 00 	lea    0x0(%rip),%rdi        # 1e <_ZNSt17_Function_handlerIFbcENSt8__detail11_AnyMatcherINSt7__cxx1112regex_traitsIcEELb0ELb1ELb0EEEE9_M_invokeERKSt9_Any_dataOc+0x1e>
  1e:	e8 00 00 00 00       	callq  23 <_ZNSt17_Function_handlerIFbcENSt8__detail11_AnyMatcherINSt7__cxx1112regex_traitsIcEELb0ELb1ELb0EEEE9_M_invokeERKSt9_Any_dataOc+0x23>
  23:	85 c0                	test   %eax,%eax
  25:	75 29                	jne    50 <_ZNSt17_Function_handlerIFbcENSt8__detail11_AnyMatcherINSt7__cxx1112regex_traitsIcEELb0ELb1ELb0EEEE9_M_invokeERKSt9_Any_dataOc+0x50>
  27:	48 8b 3b             	mov    (%rbx),%rdi
  2a:	e8 00 00 00 00       	callq  2f <_ZNSt17_Function_handlerIFbcENSt8__detail11_AnyMatcherINSt7__cxx1112regex_traitsIcEELb0ELb1ELb0EEEE9_M_invokeERKSt9_Any_dataOc+0x2f>
  2f:	48 8b 10             	mov    (%rax),%rdx
  32:	89 ee                	mov    %ebp,%esi
  34:	48 89 c7             	mov    %rax,%rdi
  37:	ff 52 20             	callq  *0x20(%rdx)
  3a:	38 05 00 00 00 00    	cmp    %al,0x0(%rip)        # 40 <_ZNSt17_Function_handlerIFbcENSt8__detail11_AnyMatcherINSt7__cxx1112regex_traitsIcEELb0ELb1ELb0EEEE9_M_invokeERKSt9_Any_dataOc+0x40>
  40:	0f 95 c0             	setne  %al
  43:	48 83 c4 08          	add    $0x8,%rsp
  47:	5b                   	pop    %rbx
  48:	5d                   	pop    %rbp
  49:	c3                   	retq   
  4a:	66 0f 1f 44 00 00    	nopw   0x0(%rax,%rax,1)
  50:	48 8b 3b             	mov    (%rbx),%rdi
  53:	e8 00 00 00 00       	callq  58 <_ZNSt17_Function_handlerIFbcENSt8__detail11_AnyMatcherINSt7__cxx1112regex_traitsIcEELb0ELb1ELb0EEEE9_M_invokeERKSt9_Any_dataOc+0x58>
  58:	48 8b 10             	mov    (%rax),%rdx
  5b:	31 f6                	xor    %esi,%esi
  5d:	48 89 c7             	mov    %rax,%rdi
  60:	ff 52 20             	callq  *0x20(%rdx)
  63:	48 8d 3d 00 00 00 00 	lea    0x0(%rip),%rdi        # 6a <_ZNSt17_Function_handlerIFbcENSt8__detail11_AnyMatcherINSt7__cxx1112regex_traitsIcEELb0ELb1ELb0EEEE9_M_invokeERKSt9_Any_dataOc+0x6a>
  6a:	88 05 00 00 00 00    	mov    %al,0x0(%rip)        # 70 <_ZNSt17_Function_handlerIFbcENSt8__detail11_AnyMatcherINSt7__cxx1112regex_traitsIcEELb0ELb1ELb0EEEE9_M_invokeERKSt9_Any_dataOc+0x70>
  70:	e8 00 00 00 00       	callq  75 <_ZNSt17_Function_handlerIFbcENSt8__detail11_AnyMatcherINSt7__cxx1112regex_traitsIcEELb0ELb1ELb0EEEE9_M_invokeERKSt9_Any_dataOc+0x75>
  75:	eb b0                	jmp    27 <_ZNSt17_Function_handlerIFbcENSt8__detail11_AnyMatcherINSt7__cxx1112regex_traitsIcEELb0ELb1ELb0EEEE9_M_invokeERKSt9_Any_dataOc+0x27>
  77:	48 8d 3d 00 00 00 00 	lea    0x0(%rip),%rdi        # 7e <_ZNSt17_Function_handlerIFbcENSt8__detail11_AnyMatcherINSt7__cxx1112regex_traitsIcEELb0ELb1ELb0EEEE9_M_invokeERKSt9_Any_dataOc+0x7e>
  7e:	48 89 c3             	mov    %rax,%rbx
  81:	e8 00 00 00 00       	callq  86 <_ZNSt17_Function_handlerIFbcENSt8__detail11_AnyMatcherINSt7__cxx1112regex_traitsIcEELb0ELb1ELb0EEEE9_M_invokeERKSt9_Any_dataOc+0x86>
  86:	48 89 df             	mov    %rbx,%rdi
  89:	e8 00 00 00 00       	callq  8e <.LC31+0x5>

Disassembly of section .text._ZSt19__throw_regex_errorNSt15regex_constants10error_typeEPKc:

0000000000000000 <_ZSt19__throw_regex_errorNSt15regex_constants10error_typeEPKc>:
   0:	41 54                	push   %r12
   2:	55                   	push   %rbp
   3:	49 89 f4             	mov    %rsi,%r12
   6:	53                   	push   %rbx
   7:	89 fd                	mov    %edi,%ebp
   9:	bf 18 00 00 00       	mov    $0x18,%edi
   e:	e8 00 00 00 00       	callq  13 <_ZSt19__throw_regex_errorNSt15regex_constants10error_typeEPKc+0x13>
  13:	4c 89 e6             	mov    %r12,%rsi
  16:	48 89 c7             	mov    %rax,%rdi
  19:	48 89 c3             	mov    %rax,%rbx
  1c:	e8 00 00 00 00       	callq  21 <_ZSt19__throw_regex_errorNSt15regex_constants10error_typeEPKc+0x21>
  21:	48 8b 15 00 00 00 00 	mov    0x0(%rip),%rdx        # 28 <_ZSt19__throw_regex_errorNSt15regex_constants10error_typeEPKc+0x28>
  28:	48 8d 05 00 00 00 00 	lea    0x0(%rip),%rax        # 2f <_ZSt19__throw_regex_errorNSt15regex_constants10error_typeEPKc+0x2f>
  2f:	48 8d 35 00 00 00 00 	lea    0x0(%rip),%rsi        # 36 <_ZSt19__throw_regex_errorNSt15regex_constants10error_typeEPKc+0x36>
  36:	48 89 df             	mov    %rbx,%rdi
  39:	89 6b 10             	mov    %ebp,0x10(%rbx)
  3c:	48 89 03             	mov    %rax,(%rbx)
  3f:	e8 00 00 00 00       	callq  44 <_ZSt19__throw_regex_errorNSt15regex_constants10error_typeEPKc+0x44>
  44:	48 89 c5             	mov    %rax,%rbp
  47:	48 89 df             	mov    %rbx,%rdi
  4a:	e8 00 00 00 00       	callq  4f <_ZSt19__throw_regex_errorNSt15regex_constants10error_typeEPKc+0x4f>
  4f:	48 89 ef             	mov    %rbp,%rdi
  52:	e8 00 00 00 00       	callq  57 <.LC60+0x7>

Disassembly of section .text._ZNSt8__detail8_ScannerIcE18_M_eat_escape_ecmaEv:

0000000000000000 <_ZNSt8__detail8_ScannerIcE18_M_eat_escape_ecmaEv>:
   0:	41 55                	push   %r13
   2:	41 54                	push   %r12
   4:	55                   	push   %rbp
   5:	53                   	push   %rbx
   6:	48 83 ec 18          	sub    $0x18,%rsp
   a:	48 8b 87 b0 00 00 00 	mov    0xb0(%rdi),%rax
  11:	48 3b 87 b8 00 00 00 	cmp    0xb8(%rdi),%rax
  18:	0f 84 5d 03 00 00    	je     37b <_ZNSt8__detail8_ScannerIcE18_M_eat_escape_ecmaEv+0x37b>
  1e:	48 8d 50 01          	lea    0x1(%rax),%rdx
  22:	4c 8b a7 c0 00 00 00 	mov    0xc0(%rdi),%r12
  29:	48 89 fb             	mov    %rdi,%rbx
  2c:	48 89 97 b0 00 00 00 	mov    %rdx,0xb0(%rdi)
  33:	44 0f be 00          	movsbl (%rax),%r8d
  37:	45 0f b6 e8          	movzbl %r8b,%r13d
  3b:	44 89 c5             	mov    %r8d,%ebp
  3e:	43 0f b6 84 2c 39 01 	movzbl 0x139(%r12,%r13,1),%eax
  45:	00 00 
  47:	84 c0                	test   %al,%al
  49:	0f 84 c1 01 00 00    	je     210 <_ZNSt8__detail8_ScannerIcE18_M_eat_escape_ecmaEv+0x210>
  4f:	48 8b 8b 98 00 00 00 	mov    0x98(%rbx),%rcx
  56:	0f b6 11             	movzbl (%rcx),%edx
  59:	84 d2                	test   %dl,%dl
  5b:	74 1a                	je     77 <_ZNSt8__detail8_ScannerIcE18_M_eat_escape_ecmaEv+0x77>
  5d:	38 d0                	cmp    %dl,%al
  5f:	75 0b                	jne    6c <_ZNSt8__detail8_ScannerIcE18_M_eat_escape_ecmaEv+0x6c>
  61:	eb 75                	jmp    d8 <_ZNSt8__detail8_ScannerIcE18_M_eat_escape_ecmaEv+0xd8>
  63:	0f 1f 44 00 00       	nopl   0x0(%rax,%rax,1)
  68:	38 c2                	cmp    %al,%dl
  6a:	74 6c                	je     d8 <_ZNSt8__detail8_ScannerIcE18_M_eat_escape_ecmaEv+0xd8>
  6c:	48 83 c1 02          	add    $0x2,%rcx
  70:	0f b6 11             	movzbl (%rcx),%edx
  73:	84 d2                	test   %dl,%dl
  75:	75 f1                	jne    68 <_ZNSt8__detail8_ScannerIcE18_M_eat_escape_ecmaEv+0x68>
  77:	40 80 fd 62          	cmp    $0x62,%bpl
  7b:	74 6a                	je     e7 <_ZNSt8__detail8_ScannerIcE18_M_eat_escape_ecmaEv+0xe7>
  7d:	40 80 fd 42          	cmp    $0x42,%bpl
  81:	0f 84 d1 01 00 00    	je     258 <_ZNSt8__detail8_ScannerIcE18_M_eat_escape_ecmaEv+0x258>
  87:	8d 45 bc             	lea    -0x44(%rbp),%eax
  8a:	3c 33                	cmp    $0x33,%al
  8c:	0f 87 c6 00 00 00    	ja     158 <_ZNSt8__detail8_ScannerIcE18_M_eat_escape_ecmaEv+0x158>
  92:	48 ba 01 80 08 00 01 	movabs $0x8800100088001,%rdx
  99:	80 08 00 
  9c:	48 0f a3 c2          	bt     %rax,%rdx
  a0:	0f 83 b2 00 00 00    	jae    158 <_ZNSt8__detail8_ScannerIcE18_M_eat_escape_ecmaEv+0x158>
  a6:	c7 83 90 00 00 00 0e 	movl   $0xe,0x90(%rbx)
  ad:	00 00 00 
  b0:	48 8b 93 d0 00 00 00 	mov    0xd0(%rbx),%rdx
  b7:	48 83 c4 18          	add    $0x18,%rsp
  bb:	48 8d bb c8 00 00 00 	lea    0xc8(%rbx),%rdi
  c2:	b9 01 00 00 00       	mov    $0x1,%ecx
  c7:	31 f6                	xor    %esi,%esi
  c9:	5b                   	pop    %rbx
  ca:	5d                   	pop    %rbp
  cb:	41 5c                	pop    %r12
  cd:	41 5d                	pop    %r13
  cf:	e9 00 00 00 00       	jmpq   d4 <_ZNSt8__detail8_ScannerIcE18_M_eat_escape_ecmaEv+0xd4>
  d4:	0f 1f 40 00          	nopl   0x0(%rax)
  d8:	40 80 fd 62          	cmp    $0x62,%bpl
  dc:	75 42                	jne    120 <_ZNSt8__detail8_ScannerIcE18_M_eat_escape_ecmaEv+0x120>
  de:	83 bb 88 00 00 00 02 	cmpl   $0x2,0x88(%rbx)
  e5:	74 39                	je     120 <_ZNSt8__detail8_ScannerIcE18_M_eat_escape_ecmaEv+0x120>
  e7:	48 8b 93 d0 00 00 00 	mov    0xd0(%rbx),%rdx
  ee:	48 8d bb c8 00 00 00 	lea    0xc8(%rbx),%rdi
  f5:	c7 83 90 00 00 00 18 	movl   $0x18,0x90(%rbx)
  fc:	00 00 00 
  ff:	41 b8 70 00 00 00    	mov    $0x70,%r8d
 105:	b9 01 00 00 00       	mov    $0x1,%ecx
 10a:	31 f6                	xor    %esi,%esi
 10c:	48 83 c4 18          	add    $0x18,%rsp
 110:	5b                   	pop    %rbx
 111:	5d                   	pop    %rbp
 112:	41 5c                	pop    %r12
 114:	41 5d                	pop    %r13
 116:	e9 00 00 00 00       	jmpq   11b <_ZNSt8__detail8_ScannerIcE18_M_eat_escape_ecmaEv+0x11b>
 11b:	0f 1f 44 00 00       	nopl   0x0(%rax,%rax,1)
 120:	c7 83 90 00 00 00 01 	movl   $0x1,0x90(%rbx)
 127:	00 00 00 
 12a:	48 8b 93 d0 00 00 00 	mov    0xd0(%rbx),%rdx
 131:	48 8d bb c8 00 00 00 	lea    0xc8(%rbx),%rdi
 138:	44 0f be 41 01       	movsbl 0x1(%rcx),%r8d
 13d:	48 83 c4 18          	add    $0x18,%rsp
 141:	b9 01 00 00 00       	mov    $0x1,%ecx
 146:	5b                   	pop    %rbx
 147:	5d                   	pop    %rbp
 148:	41 5c                	pop    %r12
 14a:	41 5d                	pop    %r13
 14c:	31 f6                	xor    %esi,%esi
 14e:	e9 00 00 00 00       	jmpq   153 <_ZNSt8__detail8_ScannerIcE18_M_eat_escape_ecmaEv+0x153>
 153:	0f 1f 44 00 00       	nopl   0x0(%rax,%rax,1)
 158:	40 80 fd 63          	cmp    $0x63,%bpl
 15c:	0f 84 3e 01 00 00    	je     2a0 <_ZNSt8__detail8_ScannerIcE18_M_eat_escape_ecmaEv+0x2a0>
 162:	40 80 fd 78          	cmp    $0x78,%bpl
 166:	4c 8d a3 c8 00 00 00 	lea    0xc8(%rbx),%r12
 16d:	0f 84 74 01 00 00    	je     2e7 <_ZNSt8__detail8_ScannerIcE18_M_eat_escape_ecmaEv+0x2e7>
 173:	40 80 fd 75          	cmp    $0x75,%bpl
 177:	0f 84 6a 01 00 00    	je     2e7 <_ZNSt8__detail8_ScannerIcE18_M_eat_escape_ecmaEv+0x2e7>
 17d:	48 8b 83 c0 00 00 00 	mov    0xc0(%rbx),%rax
 184:	40 0f b6 ed          	movzbl %bpl,%ebp
 188:	48 8b 93 d0 00 00 00 	mov    0xd0(%rbx),%rdx
 18f:	48 8b 40 30          	mov    0x30(%rax),%rax
 193:	f6 44 68 01 08       	testb  $0x8,0x1(%rax,%rbp,2)
 198:	0f 84 c4 01 00 00    	je     362 <_ZNSt8__detail8_ScannerIcE18_M_eat_escape_ecmaEv+0x362>
 19e:	31 f6                	xor    %esi,%esi
 1a0:	b9 01 00 00 00       	mov    $0x1,%ecx
 1a5:	4c 89 e7             	mov    %r12,%rdi
 1a8:	e8 00 00 00 00       	callq  1ad <_ZNSt8__detail8_ScannerIcE18_M_eat_escape_ecmaEv+0x1ad>
 1ad:	48 8b 83 b0 00 00 00 	mov    0xb0(%rbx),%rax
 1b4:	48 3b 83 b8 00 00 00 	cmp    0xb8(%rbx),%rax
 1bb:	75 29                	jne    1e6 <_ZNSt8__detail8_ScannerIcE18_M_eat_escape_ecmaEv+0x1e6>
 1bd:	eb 3c                	jmp    1fb <_ZNSt8__detail8_ScannerIcE18_M_eat_escape_ecmaEv+0x1fb>
 1bf:	90                   	nop
 1c0:	48 8d 50 01          	lea    0x1(%rax),%rdx
 1c4:	4c 89 e7             	mov    %r12,%rdi
 1c7:	48 89 93 b0 00 00 00 	mov    %rdx,0xb0(%rbx)
 1ce:	0f be 30             	movsbl (%rax),%esi
 1d1:	e8 00 00 00 00       	callq  1d6 <_ZNSt8__detail8_ScannerIcE18_M_eat_escape_ecmaEv+0x1d6>
 1d6:	48 8b 83 b0 00 00 00 	mov    0xb0(%rbx),%rax
 1dd:	48 3b 83 b8 00 00 00 	cmp    0xb8(%rbx),%rax
 1e4:	74 15                	je     1fb <_ZNSt8__detail8_ScannerIcE18_M_eat_escape_ecmaEv+0x1fb>
 1e6:	48 8b 93 c0 00 00 00 	mov    0xc0(%rbx),%rdx
 1ed:	0f b6 08             	movzbl (%rax),%ecx
 1f0:	48 8b 52 30          	mov    0x30(%rdx),%rdx
 1f4:	f6 44 4a 01 08       	testb  $0x8,0x1(%rdx,%rcx,2)
 1f9:	75 c5                	jne    1c0 <_ZNSt8__detail8_ScannerIcE18_M_eat_escape_ecmaEv+0x1c0>
 1fb:	c7 83 90 00 00 00 04 	movl   $0x4,0x90(%rbx)
 202:	00 00 00 
 205:	48 83 c4 18          	add    $0x18,%rsp
 209:	5b                   	pop    %rbx
 20a:	5d                   	pop    %rbp
 20b:	41 5c                	pop    %r12
 20d:	41 5d                	pop    %r13
 20f:	c3                   	retq   
 210:	49 8b 04 24          	mov    (%r12),%rax
 214:	48 8d 15 00 00 00 00 	lea    0x0(%rip),%rdx        # 21b <_ZNSt8__detail8_ScannerIcE18_M_eat_escape_ecmaEv+0x21b>
 21b:	48 8b 48 40          	mov    0x40(%rax),%rcx
 21f:	44 89 c0             	mov    %r8d,%eax
 222:	48 39 d1             	cmp    %rdx,%rcx
 225:	75 61                	jne    288 <_ZNSt8__detail8_ScannerIcE18_M_eat_escape_ecmaEv+0x288>
 227:	84 c0                	test   %al,%al
 229:	74 15                	je     240 <_ZNSt8__detail8_ScannerIcE18_M_eat_escape_ecmaEv+0x240>
 22b:	43 88 84 2c 39 01 00 	mov    %al,0x139(%r12,%r13,1)
 232:	00 
 233:	e9 17 fe ff ff       	jmpq   4f <_ZNSt8__detail8_ScannerIcE18_M_eat_escape_ecmaEv+0x4f>
 238:	0f 1f 84 00 00 00 00 	nopl   0x0(%rax,%rax,1)
 23f:	00 
 240:	48 8b 8b 98 00 00 00 	mov    0x98(%rbx),%rcx
 247:	80 39 00             	cmpb   $0x0,(%rcx)
 24a:	0f 85 1c fe ff ff    	jne    6c <_ZNSt8__detail8_ScannerIcE18_M_eat_escape_ecmaEv+0x6c>
 250:	e9 22 fe ff ff       	jmpq   77 <_ZNSt8__detail8_ScannerIcE18_M_eat_escape_ecmaEv+0x77>
 255:	0f 1f 00             	nopl   (%rax)
 258:	c7 83 90 00 00 00 18 	movl   $0x18,0x90(%rbx)
 25f:	00 00 00 
 262:	48 8b 93 d0 00 00 00 	mov    0xd0(%rbx),%rdx
 269:	48 8d bb c8 00 00 00 	lea    0xc8(%rbx),%rdi
 270:	41 b8 6e 00 00 00    	mov    $0x6e,%r8d
 276:	b9 01 00 00 00       	mov    $0x1,%ecx
 27b:	31 f6                	xor    %esi,%esi
 27d:	e9 8a fe ff ff       	jmpq   10c <_ZNSt8__detail8_ScannerIcE18_M_eat_escape_ecmaEv+0x10c>
 282:	66 0f 1f 44 00 00    	nopw   0x0(%rax,%rax,1)
 288:	44 89 c6             	mov    %r8d,%esi
 28b:	44 89 44 24 0c       	mov    %r8d,0xc(%rsp)
 290:	31 d2                	xor    %edx,%edx
 292:	4c 89 e7             	mov    %r12,%rdi
 295:	ff d1                	callq  *%rcx
 297:	44 8b 44 24 0c       	mov    0xc(%rsp),%r8d
 29c:	eb 89                	jmp    227 <_ZNSt8__detail8_ScannerIcE18_M_eat_escape_ecmaEv+0x227>
 29e:	66 90                	xchg   %ax,%ax
 2a0:	48 8b 83 b0 00 00 00 	mov    0xb0(%rbx),%rax
 2a7:	48 3b 83 b8 00 00 00 	cmp    0xb8(%rbx),%rax
 2ae:	0f 84 d8 00 00 00    	je     38c <_ZNSt8__detail8_ScannerIcE18_M_eat_escape_ecmaEv+0x38c>
 2b4:	48 8d 50 01          	lea    0x1(%rax),%rdx
 2b8:	c7 83 90 00 00 00 01 	movl   $0x1,0x90(%rbx)
 2bf:	00 00 00 
 2c2:	48 8d bb c8 00 00 00 	lea    0xc8(%rbx),%rdi
 2c9:	b9 01 00 00 00       	mov    $0x1,%ecx
 2ce:	31 f6                	xor    %esi,%esi
 2d0:	48 89 93 b0 00 00 00 	mov    %rdx,0xb0(%rbx)
 2d7:	48 8b 93 d0 00 00 00 	mov    0xd0(%rbx),%rdx
 2de:	44 0f be 00          	movsbl (%rax),%r8d
 2e2:	e9 25 fe ff ff       	jmpq   10c <_ZNSt8__detail8_ScannerIcE18_M_eat_escape_ecmaEv+0x10c>
 2e7:	48 8b 83 c8 00 00 00 	mov    0xc8(%rbx),%rax
 2ee:	48 c7 83 d0 00 00 00 	movq   $0x0,0xd0(%rbx)
 2f5:	00 00 00 00 
 2f9:	c6 00 00             	movb   $0x0,(%rax)
 2fc:	31 c0                	xor    %eax,%eax
 2fe:	40 80 fd 78          	cmp    $0x78,%bpl
 302:	0f 95 c0             	setne  %al
 305:	31 ed                	xor    %ebp,%ebp
 307:	44 8d 6c 00 02       	lea    0x2(%rax,%rax,1),%r13d
 30c:	0f 1f 40 00          	nopl   0x0(%rax)
 310:	48 8b 83 b0 00 00 00 	mov    0xb0(%rbx),%rax
 317:	48 3b 83 b8 00 00 00 	cmp    0xb8(%rbx),%rax
 31e:	74 7d                	je     39d <_ZNSt8__detail8_ScannerIcE18_M_eat_escape_ecmaEv+0x39d>
 320:	48 8b 93 c0 00 00 00 	mov    0xc0(%rbx),%rdx
 327:	0f b6 08             	movzbl (%rax),%ecx
 32a:	48 8b 52 30          	mov    0x30(%rdx),%rdx
 32e:	f6 44 4a 01 10       	testb  $0x10,0x1(%rdx,%rcx,2)
 333:	74 68                	je     39d <_ZNSt8__detail8_ScannerIcE18_M_eat_escape_ecmaEv+0x39d>
 335:	48 8d 50 01          	lea    0x1(%rax),%rdx
 339:	4c 89 e7             	mov    %r12,%rdi
 33c:	83 c5 01             	add    $0x1,%ebp
 33f:	48 89 93 b0 00 00 00 	mov    %rdx,0xb0(%rbx)
 346:	0f be 30             	movsbl (%rax),%esi
 349:	e8 00 00 00 00       	callq  34e <_ZNSt8__detail8_ScannerIcE18_M_eat_escape_ecmaEv+0x34e>
 34e:	41 39 ed             	cmp    %ebp,%r13d
 351:	75 bd                	jne    310 <_ZNSt8__detail8_ScannerIcE18_M_eat_escape_ecmaEv+0x310>
 353:	c7 83 90 00 00 00 03 	movl   $0x3,0x90(%rbx)
 35a:	00 00 00 
 35d:	e9 a3 fe ff ff       	jmpq   205 <_ZNSt8__detail8_ScannerIcE18_M_eat_escape_ecmaEv+0x205>
 362:	c7 83 90 00 00 00 01 	movl   $0x1,0x90(%rbx)
 369:	00 00 00 
 36c:	b9 01 00 00 00       	mov    $0x1,%ecx
 371:	31 f6                	xor    %esi,%esi
 373:	4c 89 e7             	mov    %r12,%rdi
 376:	e9 91 fd ff ff       	jmpq   10c <_ZNSt8__detail8_ScannerIcE18_M_eat_escape_ecmaEv+0x10c>
 37b:	48 8d 35 00 00 00 00 	lea    0x0(%rip),%rsi        # 382 <_ZNSt8__detail8_ScannerIcE18_M_eat_escape_ecmaEv+0x382>
 382:	bf 02 00 00 00       	mov    $0x2,%edi
 387:	e8 00 00 00 00       	callq  38c <_ZNSt8__detail8_ScannerIcE18_M_eat_escape_ecmaEv+0x38c>
 38c:	48 8d 35 00 00 00 00 	lea    0x0(%rip),%rsi        # 393 <_ZNSt8__detail8_ScannerIcE18_M_eat_escape_ecmaEv+0x393>
 393:	bf 02 00 00 00       	mov    $0x2,%edi
 398:	e8 00 00 00 00       	callq  39d <_ZNSt8__detail8_ScannerIcE18_M_eat_escape_ecmaEv+0x39d>
 39d:	48 8d 35 00 00 00 00 	lea    0x0(%rip),%rsi        # 3a4 <_ZNSt8__detail8_ScannerIcE18_M_eat_escape_ecmaEv+0x3a4>
 3a4:	bf 02 00 00 00       	mov    $0x2,%edi
 3a9:	e8 00 00 00 00       	callq  3ae <_ZNSt8__detail9_ExecutorIN9__gnu_cxx17__normal_iteratorIPKcNSt7__cxx1112basic_stringIcSt11char_traitsIcESaIcEEEEESaINS5_9sub_matchISB_EEENS5_12regex_traitsIcEELb0EE16_M_main_dispatchENSH_11_Match_modeESt17integral_constantIbLb0EE.constprop.538+0x3e>

Disassembly of section .text._ZN12SparseMatrixILi0EEC2ENSt7__cxx1112basic_stringIcSt11char_traitsIcESaIcEEE:

0000000000000000 <_ZN12SparseMatrixILi0EEC1ENSt7__cxx1112basic_stringIcSt11char_traitsIcESaIcEEE>:
   0:	41 56                	push   %r14
   2:	41 55                	push   %r13
   4:	41 54                	push   %r12
   6:	55                   	push   %rbp
   7:	48 89 f5             	mov    %rsi,%rbp
   a:	53                   	push   %rbx
   b:	48 89 fb             	mov    %rdi,%rbx
   e:	48 81 ec 30 02 00 00 	sub    $0x230,%rsp
  15:	4c 8d 64 24 20       	lea    0x20(%rsp),%r12
  1a:	64 48 8b 04 25 28 00 	mov    %fs:0x28,%rax
  21:	00 00 
  23:	48 89 84 24 28 02 00 	mov    %rax,0x228(%rsp)
  2a:	00 
  2b:	31 c0                	xor    %eax,%eax
  2d:	4c 89 e7             	mov    %r12,%rdi
  30:	e8 00 00 00 00       	callq  35 <_ZN12SparseMatrixILi0EEC1ENSt7__cxx1112basic_stringIcSt11char_traitsIcESaIcEEE+0x35>
  35:	48 8b 75 00          	mov    0x0(%rbp),%rsi
  39:	49 8d 7c 24 10       	lea    0x10(%r12),%rdi
  3e:	ba 08 00 00 00       	mov    $0x8,%edx
  43:	e8 00 00 00 00       	callq  48 <_ZN12SparseMatrixILi0EEC1ENSt7__cxx1112basic_stringIcSt11char_traitsIcESaIcEEE+0x48>
  48:	48 8b 54 24 20       	mov    0x20(%rsp),%rdx
  4d:	48 8b 7a e8          	mov    -0x18(%rdx),%rdi
  51:	4c 01 e7             	add    %r12,%rdi
  54:	48 85 c0             	test   %rax,%rax
  57:	0f 84 23 02 00 00    	je     280 <_ZN12SparseMatrixILi0EEC1ENSt7__cxx1112basic_stringIcSt11char_traitsIcESaIcEEE+0x280>
  5d:	31 f6                	xor    %esi,%esi
  5f:	e8 00 00 00 00       	callq  64 <_ZN12SparseMatrixILi0EEC1ENSt7__cxx1112basic_stringIcSt11char_traitsIcESaIcEEE+0x64>
  64:	49 8d 7c 24 78       	lea    0x78(%r12),%rdi
  69:	e8 00 00 00 00       	callq  6e <_ZN12SparseMatrixILi0EEC1ENSt7__cxx1112basic_stringIcSt11char_traitsIcESaIcEEE+0x6e>
  6e:	84 c0                	test   %al,%al
  70:	0f 84 60 02 00 00    	je     2d6 <_ZN12SparseMatrixILi0EEC1ENSt7__cxx1112basic_stringIcSt11char_traitsIcESaIcEEE+0x2d6>
  76:	49 89 e6             	mov    %rsp,%r14
  79:	48 c7 44 24 08 00 00 	movq   $0x0,0x8(%rsp)
  80:	00 00 
  82:	c6 44 24 10 00       	movb   $0x0,0x10(%rsp)
  87:	49 8d 46 10          	lea    0x10(%r14),%rax
  8b:	48 89 04 24          	mov    %rax,(%rsp)
  8f:	48 8b 44 24 20       	mov    0x20(%rsp),%rax
  94:	48 8b 40 e8          	mov    -0x18(%rax),%rax
  98:	48 8b ac 04 10 01 00 	mov    0x110(%rsp,%rax,1),%rbp
  9f:	00 
  a0:	48 85 ed             	test   %rbp,%rbp
  a3:	0f 84 65 02 00 00    	je     30e <_ZN12SparseMatrixILi0EEC1ENSt7__cxx1112basic_stringIcSt11char_traitsIcESaIcEEE+0x30e>
  a9:	80 7d 38 00          	cmpb   $0x0,0x38(%rbp)
  ad:	0f 84 8d 01 00 00    	je     240 <_ZN12SparseMatrixILi0EEC1ENSt7__cxx1112basic_stringIcSt11char_traitsIcESaIcEEE+0x240>
  b3:	0f be 55 43          	movsbl 0x43(%rbp),%edx
  b7:	4c 89 f6             	mov    %r14,%rsi
  ba:	4c 89 e7             	mov    %r12,%rdi
  bd:	e8 00 00 00 00       	callq  c2 <_ZN12SparseMatrixILi0EEC1ENSt7__cxx1112basic_stringIcSt11char_traitsIcESaIcEEE+0xc2>
  c2:	48 89 de             	mov    %rbx,%rsi
  c5:	4c 89 e7             	mov    %r12,%rdi
  c8:	e8 00 00 00 00       	callq  cd <_ZN12SparseMatrixILi0EEC1ENSt7__cxx1112basic_stringIcSt11char_traitsIcESaIcEEE+0xcd>
  cd:	48 8d 73 04          	lea    0x4(%rbx),%rsi
  d1:	4c 89 e7             	mov    %r12,%rdi
  d4:	e8 00 00 00 00       	callq  d9 <_ZN12SparseMatrixILi0EEC1ENSt7__cxx1112basic_stringIcSt11char_traitsIcESaIcEEE+0xd9>
  d9:	48 63 7b 04          	movslq 0x4(%rbx),%rdi
  dd:	48 b8 fe ff ff ff ff 	movabs $0x1ffffffffffffffe,%rax
  e4:	ff ff 1f 
  e7:	48 39 c7             	cmp    %rax,%rdi
  ea:	0f 87 19 02 00 00    	ja     309 <_ZN12SparseMatrixILi0EEC1ENSt7__cxx1112basic_stringIcSt11char_traitsIcESaIcEEE+0x309>
  f0:	48 c1 e7 02          	shl    $0x2,%rdi
  f4:	e8 00 00 00 00       	callq  f9 <_ZN12SparseMatrixILi0EEC1ENSt7__cxx1112basic_stringIcSt11char_traitsIcESaIcEEE+0xf9>
  f9:	48 63 7b 04          	movslq 0x4(%rbx),%rdi
  fd:	48 89 43 08          	mov    %rax,0x8(%rbx)
 101:	48 b8 fe ff ff ff ff 	movabs $0x1ffffffffffffffe,%rax
 108:	ff ff 1f 
 10b:	48 39 c7             	cmp    %rax,%rdi
 10e:	0f 87 98 01 00 00    	ja     2ac <_ZN12SparseMatrixILi0EEC1ENSt7__cxx1112basic_stringIcSt11char_traitsIcESaIcEEE+0x2ac>
 114:	48 c1 e7 02          	shl    $0x2,%rdi
 118:	e8 00 00 00 00       	callq  11d <_ZN12SparseMatrixILi0EEC1ENSt7__cxx1112basic_stringIcSt11char_traitsIcESaIcEEE+0x11d>
 11d:	48 89 43 10          	mov    %rax,0x10(%rbx)
 121:	8b 43 04             	mov    0x4(%rbx),%eax
 124:	31 ed                	xor    %ebp,%ebp
 126:	45 31 ed             	xor    %r13d,%r13d
 129:	85 c0                	test   %eax,%eax
 12b:	7e 2f                	jle    15c <_ZN12SparseMatrixILi0EEC1ENSt7__cxx1112basic_stringIcSt11char_traitsIcESaIcEEE+0x15c>
 12d:	0f 1f 00             	nopl   (%rax)
 130:	48 8b 73 08          	mov    0x8(%rbx),%rsi
 134:	4c 89 e7             	mov    %r12,%rdi
 137:	48 01 ee             	add    %rbp,%rsi
 13a:	e8 00 00 00 00       	callq  13f <_ZN12SparseMatrixILi0EEC1ENSt7__cxx1112basic_stringIcSt11char_traitsIcESaIcEEE+0x13f>
 13f:	48 8b 73 10          	mov    0x10(%rbx),%rsi
 143:	48 89 c7             	mov    %rax,%rdi
 146:	48 01 ee             	add    %rbp,%rsi
 149:	e8 00 00 00 00       	callq  14e <_ZN12SparseMatrixILi0EEC1ENSt7__cxx1112basic_stringIcSt11char_traitsIcESaIcEEE+0x14e>
 14e:	41 83 c5 01          	add    $0x1,%r13d
 152:	48 83 c5 04          	add    $0x4,%rbp
 156:	44 39 6b 04          	cmp    %r13d,0x4(%rbx)
 15a:	7f d4                	jg     130 <_ZN12SparseMatrixILi0EEC1ENSt7__cxx1112basic_stringIcSt11char_traitsIcESaIcEEE+0x130>
 15c:	49 8d 7c 24 10       	lea    0x10(%r12),%rdi
 161:	e8 00 00 00 00       	callq  166 <_ZN12SparseMatrixILi0EEC1ENSt7__cxx1112basic_stringIcSt11char_traitsIcESaIcEEE+0x166>
 166:	48 85 c0             	test   %rax,%rax
 169:	0f 84 21 01 00 00    	je     290 <_ZN12SparseMatrixILi0EEC1ENSt7__cxx1112basic_stringIcSt11char_traitsIcESaIcEEE+0x290>
 16f:	48 8b 3c 24          	mov    (%rsp),%rdi
 173:	49 83 c6 10          	add    $0x10,%r14
 177:	4c 39 f7             	cmp    %r14,%rdi
 17a:	74 05                	je     181 <_ZN12SparseMatrixILi0EEC1ENSt7__cxx1112basic_stringIcSt11char_traitsIcESaIcEEE+0x181>
 17c:	e8 00 00 00 00       	callq  181 <_ZN12SparseMatrixILi0EEC1ENSt7__cxx1112basic_stringIcSt11char_traitsIcESaIcEEE+0x181>
 181:	48 8d 05 00 00 00 00 	lea    0x0(%rip),%rax        # 188 <_ZN12SparseMatrixILi0EEC1ENSt7__cxx1112basic_stringIcSt11char_traitsIcESaIcEEE+0x188>
 188:	49 8d 7c 24 10       	lea    0x10(%r12),%rdi
 18d:	48 89 44 24 20       	mov    %rax,0x20(%rsp)
 192:	48 83 c0 28          	add    $0x28,%rax
 196:	48 89 84 24 20 01 00 	mov    %rax,0x120(%rsp)
 19d:	00 
 19e:	48 8d 05 00 00 00 00 	lea    0x0(%rip),%rax        # 1a5 <_ZN12SparseMatrixILi0EEC1ENSt7__cxx1112basic_stringIcSt11char_traitsIcESaIcEEE+0x1a5>
 1a5:	48 89 44 24 30       	mov    %rax,0x30(%rsp)
 1aa:	e8 00 00 00 00       	callq  1af <_ZN12SparseMatrixILi0EEC1ENSt7__cxx1112basic_stringIcSt11char_traitsIcESaIcEEE+0x1af>
 1af:	49 8d 7c 24 78       	lea    0x78(%r12),%rdi
 1b4:	e8 00 00 00 00       	callq  1b9 <_ZN12SparseMatrixILi0EEC1ENSt7__cxx1112basic_stringIcSt11char_traitsIcESaIcEEE+0x1b9>
 1b9:	48 8d 05 00 00 00 00 	lea    0x0(%rip),%rax        # 1c0 <_ZN12SparseMatrixILi0EEC1ENSt7__cxx1112basic_stringIcSt11char_traitsIcESaIcEEE+0x1c0>
 1c0:	49 8d 7c 24 48       	lea    0x48(%r12),%rdi
 1c5:	48 89 44 24 30       	mov    %rax,0x30(%rsp)
 1ca:	e8 00 00 00 00       	callq  1cf <_ZN12SparseMatrixILi0EEC1ENSt7__cxx1112basic_stringIcSt11char_traitsIcESaIcEEE+0x1cf>
 1cf:	48 8b 05 00 00 00 00 	mov    0x0(%rip),%rax        # 1d6 <_ZN12SparseMatrixILi0EEC1ENSt7__cxx1112basic_stringIcSt11char_traitsIcESaIcEEE+0x1d6>
 1d6:	48 8b 15 00 00 00 00 	mov    0x0(%rip),%rdx        # 1dd <_ZN12SparseMatrixILi0EEC1ENSt7__cxx1112basic_stringIcSt11char_traitsIcESaIcEEE+0x1dd>
 1dd:	49 8d bc 24 00 01 00 	lea    0x100(%r12),%rdi
 1e4:	00 
 1e5:	48 89 44 24 20       	mov    %rax,0x20(%rsp)
 1ea:	48 8b 40 e8          	mov    -0x18(%rax),%rax
 1ee:	48 89 54 04 20       	mov    %rdx,0x20(%rsp,%rax,1)
 1f3:	48 8d 05 00 00 00 00 	lea    0x0(%rip),%rax        # 1fa <_ZN12SparseMatrixILi0EEC1ENSt7__cxx1112basic_stringIcSt11char_traitsIcESaIcEEE+0x1fa>
 1fa:	48 c7 44 24 28 00 00 	movq   $0x0,0x28(%rsp)
 201:	00 00 
 203:	48 89 84 24 20 01 00 	mov    %rax,0x120(%rsp)
 20a:	00 
 20b:	e8 00 00 00 00       	callq  210 <_ZN12SparseMatrixILi0EEC1ENSt7__cxx1112basic_stringIcSt11char_traitsIcESaIcEEE+0x210>
 210:	48 8b 84 24 28 02 00 	mov    0x228(%rsp),%rax
 217:	00 
 218:	64 48 33 04 25 28 00 	xor    %fs:0x28,%rax
 21f:	00 00 
 221:	0f 85 dd 00 00 00    	jne    304 <_ZN12SparseMatrixILi0EEC1ENSt7__cxx1112basic_stringIcSt11char_traitsIcESaIcEEE+0x304>
 227:	48 81 c4 30 02 00 00 	add    $0x230,%rsp
 22e:	5b                   	pop    %rbx
 22f:	5d                   	pop    %rbp
 230:	41 5c                	pop    %r12
 232:	41 5d                	pop    %r13
 234:	41 5e                	pop    %r14
 236:	c3                   	retq   
 237:	66 0f 1f 84 00 00 00 	nopw   0x0(%rax,%rax,1)
 23e:	00 00 
 240:	48 89 ef             	mov    %rbp,%rdi
 243:	e8 00 00 00 00       	callq  248 <_ZN12SparseMatrixILi0EEC1ENSt7__cxx1112basic_stringIcSt11char_traitsIcESaIcEEE+0x248>
 248:	48 8b 45 00          	mov    0x0(%rbp),%rax
 24c:	48 8d 0d 00 00 00 00 	lea    0x0(%rip),%rcx        # 253 <_ZN12SparseMatrixILi0EEC1ENSt7__cxx1112basic_stringIcSt11char_traitsIcESaIcEEE+0x253>
 253:	ba 0a 00 00 00       	mov    $0xa,%edx
 258:	48 8b 40 30          	mov    0x30(%rax),%rax
 25c:	48 39 c8             	cmp    %rcx,%rax
 25f:	0f 84 52 fe ff ff    	je     b7 <_ZN12SparseMatrixILi0EEC1ENSt7__cxx1112basic_stringIcSt11char_traitsIcESaIcEEE+0xb7>
 265:	be 0a 00 00 00       	mov    $0xa,%esi
 26a:	48 89 ef             	mov    %rbp,%rdi
 26d:	ff d0                	callq  *%rax
 26f:	0f be d0             	movsbl %al,%edx
 272:	e9 40 fe ff ff       	jmpq   b7 <_ZN12SparseMatrixILi0EEC1ENSt7__cxx1112basic_stringIcSt11char_traitsIcESaIcEEE+0xb7>
 277:	66 0f 1f 84 00 00 00 	nopw   0x0(%rax,%rax,1)
 27e:	00 00 
 280:	8b 77 20             	mov    0x20(%rdi),%esi
 283:	83 ce 04             	or     $0x4,%esi
 286:	e8 00 00 00 00       	callq  28b <_ZN12SparseMatrixILi0EEC1ENSt7__cxx1112basic_stringIcSt11char_traitsIcESaIcEEE+0x28b>
 28b:	e9 d4 fd ff ff       	jmpq   64 <_ZN12SparseMatrixILi0EEC1ENSt7__cxx1112basic_stringIcSt11char_traitsIcESaIcEEE+0x64>
 290:	48 8b 44 24 20       	mov    0x20(%rsp),%rax
 295:	48 8b 78 e8          	mov    -0x18(%rax),%rdi
 299:	4c 01 e7             	add    %r12,%rdi
 29c:	8b 77 20             	mov    0x20(%rdi),%esi
 29f:	83 ce 04             	or     $0x4,%esi
 2a2:	e8 00 00 00 00       	callq  2a7 <_ZN12SparseMatrixILi0EEC1ENSt7__cxx1112basic_stringIcSt11char_traitsIcESaIcEEE+0x2a7>
 2a7:	e9 c3 fe ff ff       	jmpq   16f <_ZN12SparseMatrixILi0EEC1ENSt7__cxx1112basic_stringIcSt11char_traitsIcESaIcEEE+0x16f>
 2ac:	e8 00 00 00 00       	callq  2b1 <_ZN12SparseMatrixILi0EEC1ENSt7__cxx1112basic_stringIcSt11char_traitsIcESaIcEEE+0x2b1>
 2b1:	48 8b 3c 24          	mov    (%rsp),%rdi
 2b5:	49 83 c6 10          	add    $0x10,%r14
 2b9:	48 89 c3             	mov    %rax,%rbx
 2bc:	4c 39 f7             	cmp    %r14,%rdi
 2bf:	74 05                	je     2c6 <_ZN12SparseMatrixILi0EEC1ENSt7__cxx1112basic_stringIcSt11char_traitsIcESaIcEEE+0x2c6>
 2c1:	e8 00 00 00 00       	callq  2c6 <_ZN12SparseMatrixILi0EEC1ENSt7__cxx1112basic_stringIcSt11char_traitsIcESaIcEEE+0x2c6>
 2c6:	4c 89 e7             	mov    %r12,%rdi
 2c9:	e8 00 00 00 00       	callq  2ce <_ZN12SparseMatrixILi0EEC1ENSt7__cxx1112basic_stringIcSt11char_traitsIcESaIcEEE+0x2ce>
 2ce:	48 89 df             	mov    %rbx,%rdi
 2d1:	e8 00 00 00 00       	callq  2d6 <_ZN12SparseMatrixILi0EEC1ENSt7__cxx1112basic_stringIcSt11char_traitsIcESaIcEEE+0x2d6>
 2d6:	48 8d 35 00 00 00 00 	lea    0x0(%rip),%rsi        # 2dd <_ZN12SparseMatrixILi0EEC1ENSt7__cxx1112basic_stringIcSt11char_traitsIcESaIcEEE+0x2dd>
 2dd:	48 8d 3d 00 00 00 00 	lea    0x0(%rip),%rdi        # 2e4 <_ZN12SparseMatrixILi0EEC1ENSt7__cxx1112basic_stringIcSt11char_traitsIcESaIcEEE+0x2e4>
 2e4:	ba 19 00 00 00       	mov    $0x19,%edx
 2e9:	e8 00 00 00 00       	callq  2ee <_ZN12SparseMatrixILi0EEC1ENSt7__cxx1112basic_stringIcSt11char_traitsIcESaIcEEE+0x2ee>
 2ee:	48 8d 3d 00 00 00 00 	lea    0x0(%rip),%rdi        # 2f5 <_ZN12SparseMatrixILi0EEC1ENSt7__cxx1112basic_stringIcSt11char_traitsIcESaIcEEE+0x2f5>
 2f5:	e8 00 00 00 00       	callq  2fa <_ZN12SparseMatrixILi0EEC1ENSt7__cxx1112basic_stringIcSt11char_traitsIcESaIcEEE+0x2fa>
 2fa:	bf 01 00 00 00       	mov    $0x1,%edi
 2ff:	e8 00 00 00 00       	callq  304 <_ZN12SparseMatrixILi0EEC1ENSt7__cxx1112basic_stringIcSt11char_traitsIcESaIcEEE+0x304>
 304:	e8 00 00 00 00       	callq  309 <_ZN12SparseMatrixILi0EEC1ENSt7__cxx1112basic_stringIcSt11char_traitsIcESaIcEEE+0x309>
 309:	e8 00 00 00 00       	callq  30e <_ZN12SparseMatrixILi0EEC1ENSt7__cxx1112basic_stringIcSt11char_traitsIcESaIcEEE+0x30e>
 30e:	e8 00 00 00 00       	callq  313 <_ZN12SparseMatrixILi0EEC1ENSt7__cxx1112basic_stringIcSt11char_traitsIcESaIcEEE+0x313>
 313:	48 89 c3             	mov    %rax,%rbx
 316:	eb ae                	jmp    2c6 <_ZN12SparseMatrixILi0EEC1ENSt7__cxx1112basic_stringIcSt11char_traitsIcESaIcEEE+0x2c6>

Disassembly of section .text._ZNSt7__cxx1115basic_stringbufIcSt11char_traitsIcESaIcEED2Ev:

0000000000000000 <_ZNSt7__cxx1115basic_stringbufIcSt11char_traitsIcESaIcEED1Ev>:
   0:	48 8d 05 00 00 00 00 	lea    0x0(%rip),%rax        # 7 <_ZNSt7__cxx1115basic_stringbufIcSt11char_traitsIcESaIcEED1Ev+0x7>
   7:	53                   	push   %rbx
   8:	48 89 fb             	mov    %rdi,%rbx
   b:	48 89 07             	mov    %rax,(%rdi)
   e:	48 8b 7f 48          	mov    0x48(%rdi),%rdi
  12:	48 8d 43 58          	lea    0x58(%rbx),%rax
  16:	48 39 c7             	cmp    %rax,%rdi
  19:	74 05                	je     20 <_ZNSt7__cxx1115basic_stringbufIcSt11char_traitsIcESaIcEED1Ev+0x20>
  1b:	e8 00 00 00 00       	callq  20 <_ZNSt7__cxx1115basic_stringbufIcSt11char_traitsIcESaIcEED1Ev+0x20>
  20:	48 8d 05 00 00 00 00 	lea    0x0(%rip),%rax        # 27 <_ZNSt7__cxx1115basic_stringbufIcSt11char_traitsIcESaIcEED1Ev+0x27>
  27:	48 8d 7b 38          	lea    0x38(%rbx),%rdi
  2b:	48 89 03             	mov    %rax,(%rbx)
  2e:	5b                   	pop    %rbx
  2f:	e9 00 00 00 00       	jmpq   34 <.LC19+0x3>

Disassembly of section .text._ZNSt7__cxx1115basic_stringbufIcSt11char_traitsIcESaIcEED0Ev:

0000000000000000 <_ZNSt7__cxx1115basic_stringbufIcSt11char_traitsIcESaIcEED0Ev>:
   0:	48 8d 05 00 00 00 00 	lea    0x0(%rip),%rax        # 7 <_ZNSt7__cxx1115basic_stringbufIcSt11char_traitsIcESaIcEED0Ev+0x7>
   7:	53                   	push   %rbx
   8:	48 89 fb             	mov    %rdi,%rbx
   b:	48 89 07             	mov    %rax,(%rdi)
   e:	48 8b 7f 48          	mov    0x48(%rdi),%rdi
  12:	48 8d 43 58          	lea    0x58(%rbx),%rax
  16:	48 39 c7             	cmp    %rax,%rdi
  19:	74 05                	je     20 <_ZNSt7__cxx1115basic_stringbufIcSt11char_traitsIcESaIcEED0Ev+0x20>
  1b:	e8 00 00 00 00       	callq  20 <_ZNSt7__cxx1115basic_stringbufIcSt11char_traitsIcESaIcEED0Ev+0x20>
  20:	48 8d 05 00 00 00 00 	lea    0x0(%rip),%rax        # 27 <_ZNSt7__cxx1115basic_stringbufIcSt11char_traitsIcESaIcEED0Ev+0x27>
  27:	48 8d 7b 38          	lea    0x38(%rbx),%rdi
  2b:	48 89 03             	mov    %rax,(%rbx)
  2e:	e8 00 00 00 00       	callq  33 <_ZNSt7__cxx1115basic_stringbufIcSt11char_traitsIcESaIcEED0Ev+0x33>
  33:	48 89 df             	mov    %rbx,%rdi
  36:	be 68 00 00 00       	mov    $0x68,%esi
  3b:	5b                   	pop    %rbx
  3c:	e9 00 00 00 00       	jmpq   41 <.LC81+0x4>

Disassembly of section .text._ZNSt6vectorINSt7__cxx1112basic_stringIcSt11char_traitsIcESaIcEEESaIS5_EED2Ev:

0000000000000000 <_ZNSt6vectorINSt7__cxx1112basic_stringIcSt11char_traitsIcESaIcEEESaIS5_EED1Ev>:
   0:	41 54                	push   %r12
   2:	55                   	push   %rbp
   3:	49 89 fc             	mov    %rdi,%r12
   6:	53                   	push   %rbx
   7:	48 8b 6f 08          	mov    0x8(%rdi),%rbp
   b:	48 8b 1f             	mov    (%rdi),%rbx
   e:	48 39 dd             	cmp    %rbx,%rbp
  11:	74 23                	je     36 <_ZNSt6vectorINSt7__cxx1112basic_stringIcSt11char_traitsIcESaIcEEESaIS5_EED1Ev+0x36>
  13:	0f 1f 44 00 00       	nopl   0x0(%rax,%rax,1)
  18:	48 8b 3b             	mov    (%rbx),%rdi
  1b:	48 8d 43 10          	lea    0x10(%rbx),%rax
  1f:	48 39 c7             	cmp    %rax,%rdi
  22:	74 2c                	je     50 <_ZNSt6vectorINSt7__cxx1112basic_stringIcSt11char_traitsIcESaIcEEESaIS5_EED1Ev+0x50>
  24:	48 83 c3 20          	add    $0x20,%rbx
  28:	e8 00 00 00 00       	callq  2d <_ZNSt6vectorINSt7__cxx1112basic_stringIcSt11char_traitsIcESaIcEEESaIS5_EED1Ev+0x2d>
  2d:	48 39 dd             	cmp    %rbx,%rbp
  30:	75 e6                	jne    18 <_ZNSt6vectorINSt7__cxx1112basic_stringIcSt11char_traitsIcESaIcEEESaIS5_EED1Ev+0x18>
  32:	49 8b 1c 24          	mov    (%r12),%rbx
  36:	48 85 db             	test   %rbx,%rbx
  39:	74 25                	je     60 <_ZNSt6vectorINSt7__cxx1112basic_stringIcSt11char_traitsIcESaIcEEESaIS5_EED1Ev+0x60>
  3b:	48 89 df             	mov    %rbx,%rdi
  3e:	5b                   	pop    %rbx
  3f:	5d                   	pop    %rbp
  40:	41 5c                	pop    %r12
  42:	e9 00 00 00 00       	jmpq   47 <_ZNSt6vectorINSt7__cxx1112basic_stringIcSt11char_traitsIcESaIcEEESaIS5_EED1Ev+0x47>
  47:	66 0f 1f 84 00 00 00 	nopw   0x0(%rax,%rax,1)
  4e:	00 00 
  50:	48 83 c3 20          	add    $0x20,%rbx
  54:	48 39 dd             	cmp    %rbx,%rbp
  57:	75 bf                	jne    18 <_ZNSt6vectorINSt7__cxx1112basic_stringIcSt11char_traitsIcESaIcEEESaIS5_EED1Ev+0x18>
  59:	eb d7                	jmp    32 <_ZNSt6vectorINSt7__cxx1112basic_stringIcSt11char_traitsIcESaIcEEESaIS5_EED1Ev+0x32>
  5b:	0f 1f 44 00 00       	nopl   0x0(%rax,%rax,1)
  60:	5b                   	pop    %rbx
  61:	5d                   	pop    %rbp
  62:	41 5c                	pop    %r12
  64:	c3                   	retq   

Disassembly of section .text._ZNSt7__cxx1111basic_regexIcNS_12regex_traitsIcEEED2Ev:

0000000000000000 <_ZNSt7__cxx1111basic_regexIcNS_12regex_traitsIcEEED1Ev>:
   0:	55                   	push   %rbp
   1:	53                   	push   %rbx
   2:	48 89 fb             	mov    %rdi,%rbx
   5:	48 83 ec 08          	sub    $0x8,%rsp
   9:	48 8b 6f 18          	mov    0x18(%rdi),%rbp
   d:	48 85 ed             	test   %rbp,%rbp
  10:	74 11                	je     23 <_ZNSt7__cxx1111basic_regexIcNS_12regex_traitsIcEEED1Ev+0x23>
  12:	48 83 3d 00 00 00 00 	cmpq   $0x0,0x0(%rip)        # 1a <_ZNSt7__cxx1111basic_regexIcNS_12regex_traitsIcEEED1Ev+0x1a>
  19:	00 
  1a:	74 1c                	je     38 <_ZNSt7__cxx1111basic_regexIcNS_12regex_traitsIcEEED1Ev+0x38>
  1c:	f0 83 6d 08 01       	lock subl $0x1,0x8(%rbp)
  21:	74 3d                	je     60 <_ZNSt7__cxx1111basic_regexIcNS_12regex_traitsIcEEED1Ev+0x60>
  23:	48 83 c4 08          	add    $0x8,%rsp
  27:	48 8d 7b 08          	lea    0x8(%rbx),%rdi
  2b:	5b                   	pop    %rbx
  2c:	5d                   	pop    %rbp
  2d:	e9 00 00 00 00       	jmpq   32 <_ZNSt7__cxx1111basic_regexIcNS_12regex_traitsIcEEED1Ev+0x32>
  32:	66 0f 1f 44 00 00    	nopw   0x0(%rax,%rax,1)
  38:	8b 45 08             	mov    0x8(%rbp),%eax
  3b:	8d 50 ff             	lea    -0x1(%rax),%edx
  3e:	83 f8 01             	cmp    $0x1,%eax
  41:	89 55 08             	mov    %edx,0x8(%rbp)
  44:	75 dd                	jne    23 <_ZNSt7__cxx1111basic_regexIcNS_12regex_traitsIcEEED1Ev+0x23>
  46:	48 8b 45 00          	mov    0x0(%rbp),%rax
  4a:	48 89 ef             	mov    %rbp,%rdi
  4d:	ff 50 10             	callq  *0x10(%rax)
  50:	8b 45 0c             	mov    0xc(%rbp),%eax
  53:	8d 50 ff             	lea    -0x1(%rax),%edx
  56:	89 55 0c             	mov    %edx,0xc(%rbp)
  59:	eb 19                	jmp    74 <_ZNSt7__cxx1111basic_regexIcNS_12regex_traitsIcEEED1Ev+0x74>
  5b:	0f 1f 44 00 00       	nopl   0x0(%rax,%rax,1)
  60:	48 8b 45 00          	mov    0x0(%rbp),%rax
  64:	48 89 ef             	mov    %rbp,%rdi
  67:	ff 50 10             	callq  *0x10(%rax)
  6a:	b8 ff ff ff ff       	mov    $0xffffffff,%eax
  6f:	f0 0f c1 45 0c       	lock xadd %eax,0xc(%rbp)
  74:	83 f8 01             	cmp    $0x1,%eax
  77:	75 aa                	jne    23 <_ZNSt7__cxx1111basic_regexIcNS_12regex_traitsIcEEED1Ev+0x23>
  79:	48 8b 45 00          	mov    0x0(%rbp),%rax
  7d:	48 89 ef             	mov    %rbp,%rdi
  80:	ff 50 18             	callq  *0x18(%rax)
  83:	eb 9e                	jmp    23 <_ZNSt7__cxx1111basic_regexIcNS_12regex_traitsIcEEED1Ev+0x23>

Disassembly of section .text._Z14quicksort_pairIiEvPT_S1_ii:

0000000000000000 <_Z14quicksort_pairIiEvPT_S1_ii>:
   0:	39 ca                	cmp    %ecx,%edx
   2:	0f 8d c5 00 00 00    	jge    cd <_Z14quicksort_pairIiEvPT_S1_ii+0xcd>
   8:	41 57                	push   %r15
   a:	41 56                	push   %r14
   c:	41 89 ce             	mov    %ecx,%r14d
   f:	41 55                	push   %r13
  11:	41 54                	push   %r12
  13:	44 8d 61 01          	lea    0x1(%rcx),%r12d
  17:	55                   	push   %rbp
  18:	53                   	push   %rbx
  19:	49 89 fd             	mov    %rdi,%r13
  1c:	48 89 f5             	mov    %rsi,%rbp
  1f:	48 83 ec 08          	sub    $0x8,%rsp
  23:	41 8d 0c 16          	lea    (%r14,%rdx,1),%ecx
  27:	8d 7a ff             	lea    -0x1(%rdx),%edi
  2a:	44 89 e3             	mov    %r12d,%ebx
  2d:	89 c8                	mov    %ecx,%eax
  2f:	48 63 ff             	movslq %edi,%rdi
  32:	c1 e8 1f             	shr    $0x1f,%eax
  35:	01 c8                	add    %ecx,%eax
  37:	d1 f8                	sar    %eax
  39:	48 98                	cltq   
  3b:	44 8b 4c 85 00       	mov    0x0(%rbp,%rax,4),%r9d
  40:	44 8b 5c bd 04       	mov    0x4(%rbp,%rdi,4),%r11d
  45:	44 8d 7f 01          	lea    0x1(%rdi),%r15d
  49:	45 39 d9             	cmp    %r11d,%r9d
  4c:	7f 4d                	jg     9b <_Z14quicksort_pairIiEvPT_S1_ii+0x9b>
  4e:	48 63 c3             	movslq %ebx,%rax
  51:	48 8d 44 85 fc       	lea    -0x4(%rbp,%rax,4),%rax
  56:	eb 0a                	jmp    62 <_Z14quicksort_pairIiEvPT_S1_ii+0x62>
  58:	0f 1f 84 00 00 00 00 	nopl   0x0(%rax,%rax,1)
  5f:	00 
  60:	89 cb                	mov    %ecx,%ebx
  62:	49 89 c0             	mov    %rax,%r8
  65:	49 89 c2             	mov    %rax,%r10
  68:	48 83 e8 04          	sub    $0x4,%rax
  6c:	8b 70 04             	mov    0x4(%rax),%esi
  6f:	49 29 e8             	sub    %rbp,%r8
  72:	8d 4b ff             	lea    -0x1(%rbx),%ecx
  75:	41 39 f1             	cmp    %esi,%r9d
  78:	7c e6                	jl     60 <_Z14quicksort_pairIiEvPT_S1_ii+0x60>
  7a:	44 39 f9             	cmp    %r15d,%ecx
  7d:	7e 29                	jle    a8 <_Z14quicksort_pairIiEvPT_S1_ii+0xa8>
  7f:	4d 01 e8             	add    %r13,%r8
  82:	89 74 bd 04          	mov    %esi,0x4(%rbp,%rdi,4)
  86:	45 89 1a             	mov    %r11d,(%r10)
  89:	41 8b 44 bd 04       	mov    0x4(%r13,%rdi,4),%eax
  8e:	41 8b 30             	mov    (%r8),%esi
  91:	89 cb                	mov    %ecx,%ebx
  93:	41 89 74 bd 04       	mov    %esi,0x4(%r13,%rdi,4)
  98:	41 89 00             	mov    %eax,(%r8)
  9b:	48 83 c7 01          	add    $0x1,%rdi
  9f:	eb 9f                	jmp    40 <_Z14quicksort_pairIiEvPT_S1_ii+0x40>
  a1:	0f 1f 80 00 00 00 00 	nopl   0x0(%rax)
  a8:	48 89 ee             	mov    %rbp,%rsi
  ab:	4c 89 ef             	mov    %r13,%rdi
  ae:	e8 00 00 00 00       	callq  b3 <_Z14quicksort_pairIiEvPT_S1_ii+0xb3>
  b3:	41 39 de             	cmp    %ebx,%r14d
  b6:	89 da                	mov    %ebx,%edx
  b8:	0f 8f 65 ff ff ff    	jg     23 <_Z14quicksort_pairIiEvPT_S1_ii+0x23>
  be:	48 83 c4 08          	add    $0x8,%rsp
  c2:	5b                   	pop    %rbx
  c3:	5d                   	pop    %rbp
  c4:	41 5c                	pop    %r12
  c6:	41 5d                	pop    %r13
  c8:	41 5e                	pop    %r14
  ca:	41 5f                	pop    %r15
  cc:	c3                   	retq   
  cd:	f3 c3                	repz retq 

Disassembly of section .text._Z9quicksortIiEvPT_ii:

0000000000000000 <_Z9quicksortIiEvPT_ii>:
   0:	41 57                	push   %r15
   2:	41 56                	push   %r14
   4:	41 55                	push   %r13
   6:	41 54                	push   %r12
   8:	55                   	push   %rbp
   9:	53                   	push   %rbx
   a:	48 81 ec 88 00 00 00 	sub    $0x88,%rsp
  11:	39 d6                	cmp    %edx,%esi
  13:	89 34 24             	mov    %esi,(%rsp)
  16:	89 54 24 70          	mov    %edx,0x70(%rsp)
  1a:	0f 8d 8c 00 00 00    	jge    ac <_Z9quicksortIiEvPT_ii+0xac>
  20:	89 d0                	mov    %edx,%eax
  22:	49 89 f8             	mov    %rdi,%r8
  25:	83 c0 01             	add    $0x1,%eax
  28:	89 44 24 74          	mov    %eax,0x74(%rsp)
  2c:	48 63 1c 24          	movslq (%rsp),%rbx
  30:	8b 54 24 70          	mov    0x70(%rsp),%edx
  34:	8b 7c 24 74          	mov    0x74(%rsp),%edi
  38:	01 da                	add    %ebx,%edx
  3a:	8d 6b ff             	lea    -0x1(%rbx),%ebp
  3d:	89 d0                	mov    %edx,%eax
  3f:	c1 e8 1f             	shr    $0x1f,%eax
  42:	01 d0                	add    %edx,%eax
  44:	48 63 d5             	movslq %ebp,%rdx
  47:	d1 f8                	sar    %eax
  49:	48 29 da             	sub    %rbx,%rdx
  4c:	48 98                	cltq   
  4e:	49 8d 0c 90          	lea    (%r8,%rdx,4),%rcx
  52:	89 fa                	mov    %edi,%edx
  54:	41 8b 34 80          	mov    (%r8,%rax,4),%esi
  58:	48 89 d8             	mov    %rbx,%rax
  5b:	44 8b 4c 81 04       	mov    0x4(%rcx,%rax,4),%r9d
  60:	41 89 c5             	mov    %eax,%r13d
  63:	44 39 ce             	cmp    %r9d,%esi
  66:	7f 31                	jg     99 <_Z9quicksortIiEvPT_ii+0x99>
  68:	48 63 fa             	movslq %edx,%rdi
  6b:	41 89 d2             	mov    %edx,%r10d
  6e:	49 8d 7c b8 fc       	lea    -0x4(%r8,%rdi,4),%rdi
  73:	49 89 fc             	mov    %rdi,%r12
  76:	48 83 ef 04          	sub    $0x4,%rdi
  7a:	44 8b 5f 04          	mov    0x4(%rdi),%r11d
  7e:	83 ea 01             	sub    $0x1,%edx
  81:	44 39 de             	cmp    %r11d,%esi
  84:	7d 05                	jge    8b <_Z9quicksortIiEvPT_ii+0x8b>
  86:	41 89 d2             	mov    %edx,%r10d
  89:	eb e8                	jmp    73 <_Z9quicksortIiEvPT_ii+0x73>
  8b:	41 39 d5             	cmp    %edx,%r13d
  8e:	7d 2e                	jge    be <_Z9quicksortIiEvPT_ii+0xbe>
  90:	44 89 5c 81 04       	mov    %r11d,0x4(%rcx,%rax,4)
  95:	45 89 0c 24          	mov    %r9d,(%r12)
  99:	48 83 c0 01          	add    $0x1,%rax
  9d:	eb bc                	jmp    5b <_Z9quicksortIiEvPT_ii+0x5b>
  9f:	8b 44 24 20          	mov    0x20(%rsp),%eax
  a3:	39 44 24 70          	cmp    %eax,0x70(%rsp)
  a7:	89 04 24             	mov    %eax,(%rsp)
  aa:	7f 80                	jg     2c <_Z9quicksortIiEvPT_ii+0x2c>
  ac:	48 81 c4 88 00 00 00 	add    $0x88,%rsp
  b3:	5b                   	pop    %rbx
  b4:	5d                   	pop    %rbp
  b5:	41 5c                	pop    %r12
  b7:	41 5d                	pop    %r13
  b9:	41 5e                	pop    %r14
  bb:	41 5f                	pop    %r15
  bd:	c3                   	retq   
  be:	49 63 c2             	movslq %r10d,%rax
  c1:	89 54 24 1c          	mov    %edx,0x1c(%rsp)
  c5:	44 89 54 24 20       	mov    %r10d,0x20(%rsp)
  ca:	48 89 44 24 78       	mov    %rax,0x78(%rsp)
  cf:	8b 04 24             	mov    (%rsp),%eax
  d2:	4c 89 64 24 48       	mov    %r12,0x48(%rsp)
  d7:	39 c2                	cmp    %eax,%edx
  d9:	7e c4                	jle    9f <_Z9quicksortIiEvPT_ii+0x9f>
  db:	03 14 24             	add    (%rsp),%edx
  de:	8b 7c 24 20          	mov    0x20(%rsp),%edi
  e2:	89 d0                	mov    %edx,%eax
  e4:	c1 e8 1f             	shr    $0x1f,%eax
  e7:	01 d0                	add    %edx,%eax
  e9:	48 63 d5             	movslq %ebp,%rdx
  ec:	48 29 da             	sub    %rbx,%rdx
  ef:	d1 f8                	sar    %eax
  f1:	49 8d 0c 90          	lea    (%r8,%rdx,4),%rcx
  f5:	48 8b 54 24 78       	mov    0x78(%rsp),%rdx
  fa:	48 98                	cltq   
  fc:	41 8b 34 80          	mov    (%r8,%rax,4),%esi
 100:	48 89 d8             	mov    %rbx,%rax
 103:	44 8b 54 81 04       	mov    0x4(%rcx,%rax,4),%r10d
 108:	41 89 c6             	mov    %eax,%r14d
 10b:	44 39 d6             	cmp    %r10d,%esi
 10e:	7f 3e                	jg     14e <_Z9quicksortIiEvPT_ii+0x14e>
 110:	49 8d 54 90 f8       	lea    -0x8(%r8,%rdx,4),%rdx
 115:	41 89 fc             	mov    %edi,%r12d
 118:	eb 0a                	jmp    124 <_Z9quicksortIiEvPT_ii+0x124>
 11a:	44 8b 1a             	mov    (%rdx),%r11d
 11d:	41 89 fc             	mov    %edi,%r12d
 120:	48 83 ea 04          	sub    $0x4,%rdx
 124:	83 ef 01             	sub    $0x1,%edi
 127:	44 39 de             	cmp    %r11d,%esi
 12a:	7c ee                	jl     11a <_Z9quicksortIiEvPT_ii+0x11a>
 12c:	48 63 d7             	movslq %edi,%rdx
 12f:	41 39 fe             	cmp    %edi,%r14d
 132:	4c 8d 0c 95 00 00 00 	lea    0x0(,%rdx,4),%r9
 139:	00 
 13a:	4f 8d 2c 08          	lea    (%r8,%r9,1),%r13
 13e:	7d 14                	jge    154 <_Z9quicksortIiEvPT_ii+0x154>
 140:	44 89 5c 81 04       	mov    %r11d,0x4(%rcx,%rax,4)
 145:	45 89 55 00          	mov    %r10d,0x0(%r13)
 149:	47 8b 5c 08 fc       	mov    -0x4(%r8,%r9,1),%r11d
 14e:	48 83 c0 01          	add    $0x1,%rax
 152:	eb af                	jmp    103 <_Z9quicksortIiEvPT_ii+0x103>
 154:	8b 04 24             	mov    (%rsp),%eax
 157:	89 7c 24 18          	mov    %edi,0x18(%rsp)
 15b:	44 89 64 24 24       	mov    %r12d,0x24(%rsp)
 160:	4c 89 6c 24 50       	mov    %r13,0x50(%rsp)
 165:	39 c7                	cmp    %eax,%edi
 167:	0f 8e d7 04 00 00    	jle    644 <_Z9quicksortIiEvPT_ii+0x644>
 16d:	8b 54 24 18          	mov    0x18(%rsp),%edx
 171:	03 14 24             	add    (%rsp),%edx
 174:	44 8b 4c 24 24       	mov    0x24(%rsp),%r9d
 179:	89 d0                	mov    %edx,%eax
 17b:	c1 e8 1f             	shr    $0x1f,%eax
 17e:	01 d0                	add    %edx,%eax
 180:	48 89 da             	mov    %rbx,%rdx
 183:	d1 f8                	sar    %eax
 185:	48 98                	cltq   
 187:	41 8b 0c 80          	mov    (%r8,%rax,4),%ecx
 18b:	48 63 c5             	movslq %ebp,%rax
 18e:	48 29 d8             	sub    %rbx,%rax
 191:	49 8d 34 80          	lea    (%r8,%rax,4),%rsi
 195:	44 8b 54 96 04       	mov    0x4(%rsi,%rdx,4),%r10d
 19a:	41 89 d5             	mov    %edx,%r13d
 19d:	44 39 d1             	cmp    %r10d,%ecx
 1a0:	7f 3e                	jg     1e0 <_Z9quicksortIiEvPT_ii+0x1e0>
 1a2:	49 63 c1             	movslq %r9d,%rax
 1a5:	49 8d 44 80 f8       	lea    -0x8(%r8,%rax,4),%rax
 1aa:	eb 0a                	jmp    1b6 <_Z9quicksortIiEvPT_ii+0x1b6>
 1ac:	44 8b 18             	mov    (%rax),%r11d
 1af:	41 89 f9             	mov    %edi,%r9d
 1b2:	48 83 e8 04          	sub    $0x4,%rax
 1b6:	44 39 d9             	cmp    %r11d,%ecx
 1b9:	41 8d 79 ff          	lea    -0x1(%r9),%edi
 1bd:	7c ed                	jl     1ac <_Z9quicksortIiEvPT_ii+0x1ac>
 1bf:	48 63 c7             	movslq %edi,%rax
 1c2:	48 c1 e0 02          	shl    $0x2,%rax
 1c6:	41 39 fd             	cmp    %edi,%r13d
 1c9:	4d 8d 24 00          	lea    (%r8,%rax,1),%r12
 1cd:	7d 17                	jge    1e6 <_Z9quicksortIiEvPT_ii+0x1e6>
 1cf:	44 89 5c 96 04       	mov    %r11d,0x4(%rsi,%rdx,4)
 1d4:	45 89 14 24          	mov    %r10d,(%r12)
 1d8:	41 89 f9             	mov    %edi,%r9d
 1db:	45 8b 5c 00 fc       	mov    -0x4(%r8,%rax,1),%r11d
 1e0:	48 83 c2 01          	add    $0x1,%rdx
 1e4:	eb af                	jmp    195 <_Z9quicksortIiEvPT_ii+0x195>
 1e6:	8b 04 24             	mov    (%rsp),%eax
 1e9:	44 89 4c 24 28       	mov    %r9d,0x28(%rsp)
 1ee:	89 7c 24 2c          	mov    %edi,0x2c(%rsp)
 1f2:	4c 89 64 24 58       	mov    %r12,0x58(%rsp)
 1f7:	39 c7                	cmp    %eax,%edi
 1f9:	0f 8e 25 04 00 00    	jle    624 <_Z9quicksortIiEvPT_ii+0x624>
 1ff:	8b 54 24 2c          	mov    0x2c(%rsp),%edx
 203:	03 14 24             	add    (%rsp),%edx
 206:	48 89 d9             	mov    %rbx,%rcx
 209:	89 d0                	mov    %edx,%eax
 20b:	c1 e8 1f             	shr    $0x1f,%eax
 20e:	01 d0                	add    %edx,%eax
 210:	d1 f8                	sar    %eax
 212:	48 98                	cltq   
 214:	41 8b 14 80          	mov    (%r8,%rax,4),%edx
 218:	48 63 c5             	movslq %ebp,%rax
 21b:	48 29 d8             	sub    %rbx,%rax
 21e:	49 8d 3c 80          	lea    (%r8,%rax,4),%rdi
 222:	44 8b 54 8f 04       	mov    0x4(%rdi,%rcx,4),%r10d
 227:	41 89 cc             	mov    %ecx,%r12d
 22a:	44 39 d2             	cmp    %r10d,%edx
 22d:	7f 3e                	jg     26d <_Z9quicksortIiEvPT_ii+0x26d>
 22f:	49 63 c1             	movslq %r9d,%rax
 232:	49 8d 44 80 f8       	lea    -0x8(%r8,%rax,4),%rax
 237:	eb 0a                	jmp    243 <_Z9quicksortIiEvPT_ii+0x243>
 239:	44 8b 18             	mov    (%rax),%r11d
 23c:	41 89 f1             	mov    %esi,%r9d
 23f:	48 83 e8 04          	sub    $0x4,%rax
 243:	44 39 da             	cmp    %r11d,%edx
 246:	41 8d 71 ff          	lea    -0x1(%r9),%esi
 24a:	7c ed                	jl     239 <_Z9quicksortIiEvPT_ii+0x239>
 24c:	48 63 c6             	movslq %esi,%rax
 24f:	48 c1 e0 02          	shl    $0x2,%rax
 253:	41 39 f4             	cmp    %esi,%r12d
 256:	4d 8d 2c 00          	lea    (%r8,%rax,1),%r13
 25a:	7d 17                	jge    273 <_Z9quicksortIiEvPT_ii+0x273>
 25c:	44 89 5c 8f 04       	mov    %r11d,0x4(%rdi,%rcx,4)
 261:	45 89 55 00          	mov    %r10d,0x0(%r13)
 265:	41 89 f1             	mov    %esi,%r9d
 268:	45 8b 5c 00 fc       	mov    -0x4(%r8,%rax,1),%r11d
 26d:	48 83 c1 01          	add    $0x1,%rcx
 271:	eb af                	jmp    222 <_Z9quicksortIiEvPT_ii+0x222>
 273:	8b 04 24             	mov    (%rsp),%eax
 276:	44 89 4c 24 30       	mov    %r9d,0x30(%rsp)
 27b:	89 74 24 34          	mov    %esi,0x34(%rsp)
 27f:	4c 89 6c 24 60       	mov    %r13,0x60(%rsp)
 284:	39 c6                	cmp    %eax,%esi
 286:	0f 8e 73 03 00 00    	jle    5ff <_Z9quicksortIiEvPT_ii+0x5ff>
 28c:	8b 54 24 34          	mov    0x34(%rsp),%edx
 290:	03 14 24             	add    (%rsp),%edx
 293:	48 89 d9             	mov    %rbx,%rcx
 296:	89 d0                	mov    %edx,%eax
 298:	c1 e8 1f             	shr    $0x1f,%eax
 29b:	01 d0                	add    %edx,%eax
 29d:	d1 f8                	sar    %eax
 29f:	48 98                	cltq   
 2a1:	41 8b 14 80          	mov    (%r8,%rax,4),%edx
 2a5:	48 63 c5             	movslq %ebp,%rax
 2a8:	48 29 d8             	sub    %rbx,%rax
 2ab:	49 8d 3c 80          	lea    (%r8,%rax,4),%rdi
 2af:	44 8b 54 8f 04       	mov    0x4(%rdi,%rcx,4),%r10d
 2b4:	41 89 cc             	mov    %ecx,%r12d
 2b7:	44 39 d2             	cmp    %r10d,%edx
 2ba:	7f 48                	jg     304 <_Z9quicksortIiEvPT_ii+0x304>
 2bc:	49 63 c1             	movslq %r9d,%rax
 2bf:	49 8d 44 80 f8       	lea    -0x8(%r8,%rax,4),%rax
 2c4:	eb 14                	jmp    2da <_Z9quicksortIiEvPT_ii+0x2da>
 2c6:	66 2e 0f 1f 84 00 00 	nopw   %cs:0x0(%rax,%rax,1)
 2cd:	00 00 00 
 2d0:	44 8b 18             	mov    (%rax),%r11d
 2d3:	41 89 f1             	mov    %esi,%r9d
 2d6:	48 83 e8 04          	sub    $0x4,%rax
 2da:	44 39 da             	cmp    %r11d,%edx
 2dd:	41 8d 71 ff          	lea    -0x1(%r9),%esi
 2e1:	7c ed                	jl     2d0 <_Z9quicksortIiEvPT_ii+0x2d0>
 2e3:	48 63 c6             	movslq %esi,%rax
 2e6:	48 c1 e0 02          	shl    $0x2,%rax
 2ea:	41 39 f4             	cmp    %esi,%r12d
 2ed:	4d 8d 2c 00          	lea    (%r8,%rax,1),%r13
 2f1:	7d 17                	jge    30a <_Z9quicksortIiEvPT_ii+0x30a>
 2f3:	44 89 5c 8f 04       	mov    %r11d,0x4(%rdi,%rcx,4)
 2f8:	45 89 55 00          	mov    %r10d,0x0(%r13)
 2fc:	41 89 f1             	mov    %esi,%r9d
 2ff:	45 8b 5c 00 fc       	mov    -0x4(%r8,%rax,1),%r11d
 304:	48 83 c1 01          	add    $0x1,%rcx
 308:	eb a5                	jmp    2af <_Z9quicksortIiEvPT_ii+0x2af>
 30a:	8b 04 24             	mov    (%rsp),%eax
 30d:	44 89 4c 24 38       	mov    %r9d,0x38(%rsp)
 312:	89 74 24 3c          	mov    %esi,0x3c(%rsp)
 316:	4c 89 6c 24 68       	mov    %r13,0x68(%rsp)
 31b:	39 c6                	cmp    %eax,%esi
 31d:	0f 8e b7 02 00 00    	jle    5da <_Z9quicksortIiEvPT_ii+0x5da>
 323:	8b 14 24             	mov    (%rsp),%edx
 326:	03 54 24 3c          	add    0x3c(%rsp),%edx
 32a:	48 89 d9             	mov    %rbx,%rcx
 32d:	89 d0                	mov    %edx,%eax
 32f:	c1 e8 1f             	shr    $0x1f,%eax
 332:	01 d0                	add    %edx,%eax
 334:	d1 f8                	sar    %eax
 336:	48 98                	cltq   
 338:	41 8b 14 80          	mov    (%r8,%rax,4),%edx
 33c:	48 63 c5             	movslq %ebp,%rax
 33f:	48 29 d8             	sub    %rbx,%rax
 342:	49 8d 3c 80          	lea    (%r8,%rax,4),%rdi
 346:	66 2e 0f 1f 84 00 00 	nopw   %cs:0x0(%rax,%rax,1)
 34d:	00 00 00 
 350:	44 8b 54 8f 04       	mov    0x4(%rdi,%rcx,4),%r10d
 355:	41 89 cc             	mov    %ecx,%r12d
 358:	44 39 d2             	cmp    %r10d,%edx
 35b:	7f 47                	jg     3a4 <_Z9quicksortIiEvPT_ii+0x3a4>
 35d:	49 63 c1             	movslq %r9d,%rax
 360:	49 8d 44 80 f8       	lea    -0x8(%r8,%rax,4),%rax
 365:	eb 13                	jmp    37a <_Z9quicksortIiEvPT_ii+0x37a>
 367:	66 0f 1f 84 00 00 00 	nopw   0x0(%rax,%rax,1)
 36e:	00 00 
 370:	44 8b 18             	mov    (%rax),%r11d
 373:	41 89 f1             	mov    %esi,%r9d
 376:	48 83 e8 04          	sub    $0x4,%rax
 37a:	44 39 da             	cmp    %r11d,%edx
 37d:	41 8d 71 ff          	lea    -0x1(%r9),%esi
 381:	7c ed                	jl     370 <_Z9quicksortIiEvPT_ii+0x370>
 383:	48 63 c6             	movslq %esi,%rax
 386:	48 c1 e0 02          	shl    $0x2,%rax
 38a:	41 39 f4             	cmp    %esi,%r12d
 38d:	4d 8d 2c 00          	lea    (%r8,%rax,1),%r13
 391:	7d 17                	jge    3aa <_Z9quicksortIiEvPT_ii+0x3aa>
 393:	44 89 5c 8f 04       	mov    %r11d,0x4(%rdi,%rcx,4)
 398:	45 89 55 00          	mov    %r10d,0x0(%r13)
 39c:	41 89 f1             	mov    %esi,%r9d
 39f:	45 8b 5c 00 fc       	mov    -0x4(%r8,%rax,1),%r11d
 3a4:	48 83 c1 01          	add    $0x1,%rcx
 3a8:	eb a6                	jmp    350 <_Z9quicksortIiEvPT_ii+0x350>
 3aa:	39 34 24             	cmp    %esi,(%rsp)
 3ad:	44 89 4c 24 14       	mov    %r9d,0x14(%rsp)
 3b2:	44 89 c8             	mov    %r9d,%eax
 3b5:	89 74 24 10          	mov    %esi,0x10(%rsp)
 3b9:	4c 89 6c 24 40       	mov    %r13,0x40(%rsp)
 3be:	0f 8d f5 01 00 00    	jge    5b9 <_Z9quicksortIiEvPT_ii+0x5b9>
 3c4:	8b 14 24             	mov    (%rsp),%edx
 3c7:	4d 89 c6             	mov    %r8,%r14
 3ca:	48 89 d9             	mov    %rbx,%rcx
 3cd:	45 89 c8             	mov    %r9d,%r8d
 3d0:	03 54 24 10          	add    0x10(%rsp),%edx
 3d4:	48 63 f5             	movslq %ebp,%rsi
 3d7:	48 29 ce             	sub    %rcx,%rsi
 3da:	4d 8d 0c b6          	lea    (%r14,%rsi,4),%r9
 3de:	89 d0                	mov    %edx,%eax
 3e0:	c1 e8 1f             	shr    $0x1f,%eax
 3e3:	01 d0                	add    %edx,%eax
 3e5:	48 89 ca             	mov    %rcx,%rdx
 3e8:	d1 f8                	sar    %eax
 3ea:	48 98                	cltq   
 3ec:	41 8b 04 86          	mov    (%r14,%rax,4),%eax
 3f0:	41 8b 7c 91 04       	mov    0x4(%r9,%rdx,4),%edi
 3f5:	41 89 d2             	mov    %edx,%r10d
 3f8:	39 f8                	cmp    %edi,%eax
 3fa:	7f 46                	jg     442 <_Z9quicksortIiEvPT_ii+0x442>
 3fc:	49 63 f0             	movslq %r8d,%rsi
 3ff:	49 8d 74 b6 f8       	lea    -0x8(%r14,%rsi,4),%rsi
 404:	eb 14                	jmp    41a <_Z9quicksortIiEvPT_ii+0x41a>
 406:	66 2e 0f 1f 84 00 00 	nopw   %cs:0x0(%rax,%rax,1)
 40d:	00 00 00 
 410:	44 8b 1e             	mov    (%rsi),%r11d
 413:	45 89 f8             	mov    %r15d,%r8d
 416:	48 83 ee 04          	sub    $0x4,%rsi
 41a:	44 39 d8             	cmp    %r11d,%eax
 41d:	45 8d 78 ff          	lea    -0x1(%r8),%r15d
 421:	7c ed                	jl     410 <_Z9quicksortIiEvPT_ii+0x410>
 423:	49 63 f7             	movslq %r15d,%rsi
 426:	48 c1 e6 02          	shl    $0x2,%rsi
 42a:	45 39 fa             	cmp    %r15d,%r10d
 42d:	49 8d 1c 36          	lea    (%r14,%rsi,1),%rbx
 431:	7d 15                	jge    448 <_Z9quicksortIiEvPT_ii+0x448>
 433:	45 89 5c 91 04       	mov    %r11d,0x4(%r9,%rdx,4)
 438:	89 3b                	mov    %edi,(%rbx)
 43a:	45 89 f8             	mov    %r15d,%r8d
 43d:	45 8b 5c 36 fc       	mov    -0x4(%r14,%rsi,1),%r11d
 442:	48 83 c2 01          	add    $0x1,%rdx
 446:	eb a8                	jmp    3f0 <_Z9quicksortIiEvPT_ii+0x3f0>
 448:	44 39 3c 24          	cmp    %r15d,(%rsp)
 44c:	48 89 5c 24 08       	mov    %rbx,0x8(%rsp)
 451:	0f 8d 37 01 00 00    	jge    58e <_Z9quicksortIiEvPT_ii+0x58e>
 457:	8b 34 24             	mov    (%rsp),%esi
 45a:	44 89 44 24 04       	mov    %r8d,0x4(%rsp)
 45f:	89 eb                	mov    %ebp,%ebx
 461:	45 89 c5             	mov    %r8d,%r13d
 464:	42 8d 14 3e          	lea    (%rsi,%r15,1),%edx
 468:	48 63 fb             	movslq %ebx,%rdi
 46b:	48 29 cf             	sub    %rcx,%rdi
 46e:	89 d0                	mov    %edx,%eax
 470:	4d 8d 14 be          	lea    (%r14,%rdi,4),%r10
 474:	c1 e8 1f             	shr    $0x1f,%eax
 477:	01 d0                	add    %edx,%eax
 479:	48 89 ca             	mov    %rcx,%rdx
 47c:	d1 f8                	sar    %eax
 47e:	48 98                	cltq   
 480:	41 8b 04 86          	mov    (%r14,%rax,4),%eax
 484:	0f 1f 40 00          	nopl   0x0(%rax)
 488:	45 8b 44 92 04       	mov    0x4(%r10,%rdx,4),%r8d
 48d:	41 89 d1             	mov    %edx,%r9d
 490:	44 39 c0             	cmp    %r8d,%eax
 493:	7f 3f                	jg     4d4 <_Z9quicksortIiEvPT_ii+0x4d4>
 495:	49 63 fd             	movslq %r13d,%rdi
 498:	49 8d 7c be f8       	lea    -0x8(%r14,%rdi,4),%rdi
 49d:	eb 0b                	jmp    4aa <_Z9quicksortIiEvPT_ii+0x4aa>
 49f:	90                   	nop
 4a0:	44 8b 1f             	mov    (%rdi),%r11d
 4a3:	45 89 e5             	mov    %r12d,%r13d
 4a6:	48 83 ef 04          	sub    $0x4,%rdi
 4aa:	44 39 d8             	cmp    %r11d,%eax
 4ad:	45 8d 65 ff          	lea    -0x1(%r13),%r12d
 4b1:	7c ed                	jl     4a0 <_Z9quicksortIiEvPT_ii+0x4a0>
 4b3:	49 63 fc             	movslq %r12d,%rdi
 4b6:	48 c1 e7 02          	shl    $0x2,%rdi
 4ba:	45 39 e1             	cmp    %r12d,%r9d
 4bd:	49 8d 2c 3e          	lea    (%r14,%rdi,1),%rbp
 4c1:	7d 17                	jge    4da <_Z9quicksortIiEvPT_ii+0x4da>
 4c3:	45 89 5c 92 04       	mov    %r11d,0x4(%r10,%rdx,4)
 4c8:	44 89 45 00          	mov    %r8d,0x0(%rbp)
 4cc:	45 89 e5             	mov    %r12d,%r13d
 4cf:	45 8b 5c 3e fc       	mov    -0x4(%r14,%rdi,1),%r11d
 4d4:	48 83 c2 01          	add    $0x1,%rdx
 4d8:	eb ae                	jmp    488 <_Z9quicksortIiEvPT_ii+0x488>
 4da:	44 39 e6             	cmp    %r12d,%esi
 4dd:	0f 8d 86 00 00 00    	jge    569 <_Z9quicksortIiEvPT_ii+0x569>
 4e3:	42 8d 14 26          	lea    (%rsi,%r12,1),%edx
 4e7:	48 63 db             	movslq %ebx,%rbx
 4ea:	44 89 ed             	mov    %r13d,%ebp
 4ed:	48 29 cb             	sub    %rcx,%rbx
 4f0:	89 d0                	mov    %edx,%eax
 4f2:	4d 8d 1c 9e          	lea    (%r14,%rbx,4),%r11
 4f6:	c1 e8 1f             	shr    $0x1f,%eax
 4f9:	01 d0                	add    %edx,%eax
 4fb:	d1 f8                	sar    %eax
 4fd:	48 98                	cltq   
 4ff:	41 8b 3c 86          	mov    (%r14,%rax,4),%edi
 503:	0f 1f 44 00 00       	nopl   0x0(%rax,%rax,1)
 508:	45 8b 4c 8b 04       	mov    0x4(%r11,%rcx,4),%r9d
 50d:	41 89 ca             	mov    %ecx,%r10d
 510:	44 39 cf             	cmp    %r9d,%edi
 513:	7f 2d                	jg     542 <_Z9quicksortIiEvPT_ii+0x542>
 515:	48 63 c5             	movslq %ebp,%rax
 518:	49 8d 44 86 fc       	lea    -0x4(%r14,%rax,4),%rax
 51d:	eb 03                	jmp    522 <_Z9quicksortIiEvPT_ii+0x522>
 51f:	90                   	nop
 520:	89 dd                	mov    %ebx,%ebp
 522:	49 89 c0             	mov    %rax,%r8
 525:	48 83 e8 04          	sub    $0x4,%rax
 529:	8b 50 04             	mov    0x4(%rax),%edx
 52c:	8d 5d ff             	lea    -0x1(%rbp),%ebx
 52f:	39 d7                	cmp    %edx,%edi
 531:	7c ed                	jl     520 <_Z9quicksortIiEvPT_ii+0x520>
 533:	41 39 da             	cmp    %ebx,%r10d
 536:	7d 18                	jge    550 <_Z9quicksortIiEvPT_ii+0x550>
 538:	41 89 54 8b 04       	mov    %edx,0x4(%r11,%rcx,4)
 53d:	89 dd                	mov    %ebx,%ebp
 53f:	45 89 08             	mov    %r9d,(%r8)
 542:	48 83 c1 01          	add    $0x1,%rcx
 546:	eb c0                	jmp    508 <_Z9quicksortIiEvPT_ii+0x508>
 548:	0f 1f 84 00 00 00 00 	nopl   0x0(%rax,%rax,1)
 54f:	00 
 550:	89 da                	mov    %ebx,%edx
 552:	4c 89 f7             	mov    %r14,%rdi
 555:	e8 00 00 00 00       	callq  55a <_Z9quicksortIiEvPT_ii+0x55a>
 55a:	41 39 ec             	cmp    %ebp,%r12d
 55d:	89 ee                	mov    %ebp,%esi
 55f:	7e 08                	jle    569 <_Z9quicksortIiEvPT_ii+0x569>
 561:	48 63 cd             	movslq %ebp,%rcx
 564:	e9 7a ff ff ff       	jmpq   4e3 <_Z9quicksortIiEvPT_ii+0x4e3>
 569:	45 39 ef             	cmp    %r13d,%r15d
 56c:	7e 1b                	jle    589 <_Z9quicksortIiEvPT_ii+0x589>
 56e:	48 8b 44 24 08       	mov    0x8(%rsp),%rax
 573:	49 63 cd             	movslq %r13d,%rcx
 576:	44 8b 6c 24 04       	mov    0x4(%rsp),%r13d
 57b:	48 89 ce             	mov    %rcx,%rsi
 57e:	8d 59 ff             	lea    -0x1(%rcx),%ebx
 581:	44 8b 18             	mov    (%rax),%r11d
 584:	e9 db fe ff ff       	jmpq   464 <_Z9quicksortIiEvPT_ii+0x464>
 589:	44 8b 44 24 04       	mov    0x4(%rsp),%r8d
 58e:	44 39 44 24 10       	cmp    %r8d,0x10(%rsp)
 593:	7e 1d                	jle    5b2 <_Z9quicksortIiEvPT_ii+0x5b2>
 595:	48 8b 44 24 40       	mov    0x40(%rsp),%rax
 59a:	49 63 c8             	movslq %r8d,%rcx
 59d:	44 8b 44 24 14       	mov    0x14(%rsp),%r8d
 5a2:	89 0c 24             	mov    %ecx,(%rsp)
 5a5:	8d 69 ff             	lea    -0x1(%rcx),%ebp
 5a8:	89 ca                	mov    %ecx,%edx
 5aa:	44 8b 18             	mov    (%rax),%r11d
 5ad:	e9 1e fe ff ff       	jmpq   3d0 <_Z9quicksortIiEvPT_ii+0x3d0>
 5b2:	8b 44 24 14          	mov    0x14(%rsp),%eax
 5b6:	4d 89 f0             	mov    %r14,%r8
 5b9:	39 44 24 3c          	cmp    %eax,0x3c(%rsp)
 5bd:	7e 1b                	jle    5da <_Z9quicksortIiEvPT_ii+0x5da>
 5bf:	48 8b 74 24 68       	mov    0x68(%rsp),%rsi
 5c4:	89 04 24             	mov    %eax,(%rsp)
 5c7:	48 63 d8             	movslq %eax,%rbx
 5ca:	8d 68 ff             	lea    -0x1(%rax),%ebp
 5cd:	44 8b 4c 24 38       	mov    0x38(%rsp),%r9d
 5d2:	44 8b 1e             	mov    (%rsi),%r11d
 5d5:	e9 49 fd ff ff       	jmpq   323 <_Z9quicksortIiEvPT_ii+0x323>
 5da:	8b 44 24 38          	mov    0x38(%rsp),%eax
 5de:	39 44 24 34          	cmp    %eax,0x34(%rsp)
 5e2:	7e 1b                	jle    5ff <_Z9quicksortIiEvPT_ii+0x5ff>
 5e4:	48 8b 74 24 60       	mov    0x60(%rsp),%rsi
 5e9:	89 04 24             	mov    %eax,(%rsp)
 5ec:	48 63 d8             	movslq %eax,%rbx
 5ef:	8d 68 ff             	lea    -0x1(%rax),%ebp
 5f2:	44 8b 4c 24 30       	mov    0x30(%rsp),%r9d
 5f7:	44 8b 1e             	mov    (%rsi),%r11d
 5fa:	e9 8d fc ff ff       	jmpq   28c <_Z9quicksortIiEvPT_ii+0x28c>
 5ff:	8b 44 24 30          	mov    0x30(%rsp),%eax
 603:	39 44 24 2c          	cmp    %eax,0x2c(%rsp)
 607:	7e 1b                	jle    624 <_Z9quicksortIiEvPT_ii+0x624>
 609:	48 8b 74 24 58       	mov    0x58(%rsp),%rsi
 60e:	89 04 24             	mov    %eax,(%rsp)
 611:	48 63 d8             	movslq %eax,%rbx
 614:	8d 68 ff             	lea    -0x1(%rax),%ebp
 617:	44 8b 4c 24 28       	mov    0x28(%rsp),%r9d
 61c:	44 8b 1e             	mov    (%rsi),%r11d
 61f:	e9 db fb ff ff       	jmpq   1ff <_Z9quicksortIiEvPT_ii+0x1ff>
 624:	8b 44 24 28          	mov    0x28(%rsp),%eax
 628:	39 44 24 18          	cmp    %eax,0x18(%rsp)
 62c:	7e 16                	jle    644 <_Z9quicksortIiEvPT_ii+0x644>
 62e:	48 8b 74 24 50       	mov    0x50(%rsp),%rsi
 633:	89 04 24             	mov    %eax,(%rsp)
 636:	48 63 d8             	movslq %eax,%rbx
 639:	8d 68 ff             	lea    -0x1(%rax),%ebp
 63c:	44 8b 1e             	mov    (%rsi),%r11d
 63f:	e9 29 fb ff ff       	jmpq   16d <_Z9quicksortIiEvPT_ii+0x16d>
 644:	8b 44 24 24          	mov    0x24(%rsp),%eax
 648:	39 44 24 1c          	cmp    %eax,0x1c(%rsp)
 64c:	0f 8e 4d fa ff ff    	jle    9f <_Z9quicksortIiEvPT_ii+0x9f>
 652:	48 8b 74 24 48       	mov    0x48(%rsp),%rsi
 657:	89 04 24             	mov    %eax,(%rsp)
 65a:	48 63 d8             	movslq %eax,%rbx
 65d:	8d 68 ff             	lea    -0x1(%rax),%ebp
 660:	8b 54 24 1c          	mov    0x1c(%rsp),%edx
 664:	44 8b 1e             	mov    (%rsi),%r11d
 667:	e9 6f fa ff ff       	jmpq   db <_Z9quicksortIiEvPT_ii+0xdb>

Disassembly of section .text._ZStplIcSt11char_traitsIcESaIcEENSt7__cxx1112basic_stringIT_T0_T1_EEOS8_PKS5_:

0000000000000000 <_ZStplIcSt11char_traitsIcESaIcEENSt7__cxx1112basic_stringIT_T0_T1_EEOS8_PKS5_>:
   0:	41 54                	push   %r12
   2:	55                   	push   %rbp
   3:	48 89 f5             	mov    %rsi,%rbp
   6:	53                   	push   %rbx
   7:	48 89 fb             	mov    %rdi,%rbx
   a:	48 89 d7             	mov    %rdx,%rdi
   d:	49 89 d4             	mov    %rdx,%r12
  10:	e8 00 00 00 00       	callq  15 <_ZStplIcSt11char_traitsIcESaIcEENSt7__cxx1112basic_stringIT_T0_T1_EEOS8_PKS5_+0x15>
  15:	48 b9 ff ff ff ff ff 	movabs $0x7fffffffffffffff,%rcx
  1c:	ff ff 7f 
  1f:	48 2b 4d 08          	sub    0x8(%rbp),%rcx
  23:	48 39 c8             	cmp    %rcx,%rax
  26:	77 5b                	ja     83 <_ZStplIcSt11char_traitsIcESaIcEENSt7__cxx1112basic_stringIT_T0_T1_EEOS8_PKS5_+0x83>
  28:	48 89 c2             	mov    %rax,%rdx
  2b:	4c 89 e6             	mov    %r12,%rsi
  2e:	48 89 ef             	mov    %rbp,%rdi
  31:	e8 00 00 00 00       	callq  36 <_ZStplIcSt11char_traitsIcESaIcEENSt7__cxx1112basic_stringIT_T0_T1_EEOS8_PKS5_+0x36>
  36:	48 8d 53 10          	lea    0x10(%rbx),%rdx
  3a:	48 89 13             	mov    %rdx,(%rbx)
  3d:	48 8b 08             	mov    (%rax),%rcx
  40:	48 8d 50 10          	lea    0x10(%rax),%rdx
  44:	48 39 d1             	cmp    %rdx,%rcx
  47:	74 2f                	je     78 <_ZStplIcSt11char_traitsIcESaIcEENSt7__cxx1112basic_stringIT_T0_T1_EEOS8_PKS5_+0x78>
  49:	48 89 0b             	mov    %rcx,(%rbx)
  4c:	48 8b 48 10          	mov    0x10(%rax),%rcx
  50:	48 89 4b 10          	mov    %rcx,0x10(%rbx)
  54:	48 8b 48 08          	mov    0x8(%rax),%rcx
  58:	48 89 4b 08          	mov    %rcx,0x8(%rbx)
  5c:	48 89 10             	mov    %rdx,(%rax)
  5f:	48 c7 40 08 00 00 00 	movq   $0x0,0x8(%rax)
  66:	00 
  67:	c6 40 10 00          	movb   $0x0,0x10(%rax)
  6b:	48 89 d8             	mov    %rbx,%rax
  6e:	5b                   	pop    %rbx
  6f:	5d                   	pop    %rbp
  70:	41 5c                	pop    %r12
  72:	c3                   	retq   
  73:	0f 1f 44 00 00       	nopl   0x0(%rax,%rax,1)
  78:	f3 0f 6f 40 10       	movdqu 0x10(%rax),%xmm0
  7d:	0f 11 43 10          	movups %xmm0,0x10(%rbx)
  81:	eb d1                	jmp    54 <_ZStplIcSt11char_traitsIcESaIcEENSt7__cxx1112basic_stringIT_T0_T1_EEOS8_PKS5_+0x54>
  83:	48 8d 3d 00 00 00 00 	lea    0x0(%rip),%rdi        # 8a <_ZStplIcSt11char_traitsIcESaIcEENSt7__cxx1112basic_stringIT_T0_T1_EEOS8_PKS5_+0x8a>
  8a:	e8 00 00 00 00       	callq  8f <.LC31+0x6>

Disassembly of section .text._ZStplIcSt11char_traitsIcESaIcEENSt7__cxx1112basic_stringIT_T0_T1_EEPKS5_RKS8_:

0000000000000000 <_ZStplIcSt11char_traitsIcESaIcEENSt7__cxx1112basic_stringIT_T0_T1_EEPKS5_RKS8_>:
   0:	41 56                	push   %r14
   2:	41 55                	push   %r13
   4:	49 89 f5             	mov    %rsi,%r13
   7:	41 54                	push   %r12
   9:	55                   	push   %rbp
   a:	49 89 d4             	mov    %rdx,%r12
   d:	53                   	push   %rbx
   e:	48 89 fb             	mov    %rdi,%rbx
  11:	48 89 f7             	mov    %rsi,%rdi
  14:	4c 8d 73 10          	lea    0x10(%rbx),%r14
  18:	e8 00 00 00 00       	callq  1d <_ZStplIcSt11char_traitsIcESaIcEENSt7__cxx1112basic_stringIT_T0_T1_EEPKS5_RKS8_+0x1d>
  1d:	4c 89 33             	mov    %r14,(%rbx)
  20:	48 c7 43 08 00 00 00 	movq   $0x0,0x8(%rbx)
  27:	00 
  28:	48 89 df             	mov    %rbx,%rdi
  2b:	c6 43 10 00          	movb   $0x0,0x10(%rbx)
  2f:	49 8b 74 24 08       	mov    0x8(%r12),%rsi
  34:	48 89 c5             	mov    %rax,%rbp
  37:	48 01 c6             	add    %rax,%rsi
  3a:	e8 00 00 00 00       	callq  3f <_ZStplIcSt11char_traitsIcESaIcEENSt7__cxx1112basic_stringIT_T0_T1_EEPKS5_RKS8_+0x3f>
  3f:	48 b8 ff ff ff ff ff 	movabs $0x7fffffffffffffff,%rax
  46:	ff ff 7f 
  49:	48 2b 43 08          	sub    0x8(%rbx),%rax
  4d:	48 39 c5             	cmp    %rax,%rbp
  50:	77 2b                	ja     7d <_ZStplIcSt11char_traitsIcESaIcEENSt7__cxx1112basic_stringIT_T0_T1_EEPKS5_RKS8_+0x7d>
  52:	48 89 ea             	mov    %rbp,%rdx
  55:	4c 89 ee             	mov    %r13,%rsi
  58:	48 89 df             	mov    %rbx,%rdi
  5b:	e8 00 00 00 00       	callq  60 <_ZStplIcSt11char_traitsIcESaIcEENSt7__cxx1112basic_stringIT_T0_T1_EEPKS5_RKS8_+0x60>
  60:	49 8b 54 24 08       	mov    0x8(%r12),%rdx
  65:	49 8b 34 24          	mov    (%r12),%rsi
  69:	48 89 df             	mov    %rbx,%rdi
  6c:	e8 00 00 00 00       	callq  71 <_ZStplIcSt11char_traitsIcESaIcEENSt7__cxx1112basic_stringIT_T0_T1_EEPKS5_RKS8_+0x71>
  71:	48 89 d8             	mov    %rbx,%rax
  74:	5b                   	pop    %rbx
  75:	5d                   	pop    %rbp
  76:	41 5c                	pop    %r12
  78:	41 5d                	pop    %r13
  7a:	41 5e                	pop    %r14
  7c:	c3                   	retq   
  7d:	48 8d 3d 00 00 00 00 	lea    0x0(%rip),%rdi        # 84 <_ZStplIcSt11char_traitsIcESaIcEENSt7__cxx1112basic_stringIT_T0_T1_EEPKS5_RKS8_+0x84>
  84:	e8 00 00 00 00       	callq  89 <_ZStplIcSt11char_traitsIcESaIcEENSt7__cxx1112basic_stringIT_T0_T1_EEPKS5_RKS8_+0x89>
  89:	48 8b 3b             	mov    (%rbx),%rdi
  8c:	48 89 c5             	mov    %rax,%rbp
  8f:	49 39 fe             	cmp    %rdi,%r14
  92:	74 05                	je     99 <_ZStplIcSt11char_traitsIcESaIcEENSt7__cxx1112basic_stringIT_T0_T1_EEPKS5_RKS8_+0x99>
  94:	e8 00 00 00 00       	callq  99 <_ZStplIcSt11char_traitsIcESaIcEENSt7__cxx1112basic_stringIT_T0_T1_EEPKS5_RKS8_+0x99>
  99:	48 89 ef             	mov    %rbp,%rdi
  9c:	e8 00 00 00 00       	callq  a1 <.LC33+0x1>

Disassembly of section .text._Z2prI12SparseMatrixILi4EEEvPT_RNSt6chrono10time_pointINS4_3_V212system_clockENS4_8durationIlSt5ratioILl1ELl1000000000EEEEEERNSt7__cxx1112basic_stringIcSt11char_traitsIcESaIcEEE:

0000000000000000 <_Z2prI12SparseMatrixILi4EEEvPT_RNSt6chrono10time_pointINS4_3_V212system_clockENS4_8durationIlSt5ratioILl1ELl1000000000EEEEEERNSt7__cxx1112basic_stringIcSt11char_traitsIcESaIcEEE>:
       0:	41 57                	push   %r15
       2:	41 56                	push   %r14
       4:	49 89 f6             	mov    %rsi,%r14
       7:	41 55                	push   %r13
       9:	41 54                	push   %r12
       b:	55                   	push   %rbp
       c:	53                   	push   %rbx
       d:	48 89 fd             	mov    %rdi,%rbp
      10:	48 81 ec d8 03 00 00 	sub    $0x3d8,%rsp
      17:	64 48 8b 04 25 28 00 	mov    %fs:0x28,%rax
      1e:	00 00 
      20:	48 89 84 24 c8 03 00 	mov    %rax,0x3c8(%rsp)
      27:	00 
      28:	31 c0                	xor    %eax,%eax
      2a:	48 8b 06             	mov    (%rsi),%rax
      2d:	48 89 34 24          	mov    %rsi,(%rsp)
      31:	4c 8d bc 24 20 01 00 	lea    0x120(%rsp),%r15
      38:	00 
      39:	48 89 54 24 18       	mov    %rdx,0x18(%rsp)
      3e:	48 89 84 24 c0 00 00 	mov    %rax,0xc0(%rsp)
      45:	00 
      46:	e8 00 00 00 00       	callq  4b <_Z2prI12SparseMatrixILi4EEEvPT_RNSt6chrono10time_pointINS4_3_V212system_clockENS4_8durationIlSt5ratioILl1ELl1000000000EEEEEERNSt7__cxx1112basic_stringIcSt11char_traitsIcESaIcEEE+0x4b>
      4b:	49 2b 06             	sub    (%r14),%rax
      4e:	66 0f ef c0          	pxor   %xmm0,%xmm0
      52:	48 8d 35 00 00 00 00 	lea    0x0(%rip),%rsi        # 59 <_Z2prI12SparseMatrixILi4EEEvPT_RNSt6chrono10time_pointINS4_3_V212system_clockENS4_8durationIlSt5ratioILl1ELl1000000000EEEEEERNSt7__cxx1112basic_stringIcSt11char_traitsIcESaIcEEE+0x59>
      59:	48 8d 3d 00 00 00 00 	lea    0x0(%rip),%rdi        # 60 <_Z2prI12SparseMatrixILi4EEEvPT_RNSt6chrono10time_pointINS4_3_V212system_clockENS4_8durationIlSt5ratioILl1ELl1000000000EEEEEERNSt7__cxx1112basic_stringIcSt11char_traitsIcESaIcEEE+0x60>
      60:	ba 0f 00 00 00       	mov    $0xf,%edx
      65:	f2 48 0f 2a c0       	cvtsi2sd %rax,%xmm0
      6a:	f2 0f 59 05 00 00 00 	mulsd  0x0(%rip),%xmm0        # 72 <_Z2prI12SparseMatrixILi4EEEvPT_RNSt6chrono10time_pointINS4_3_V212system_clockENS4_8durationIlSt5ratioILl1ELl1000000000EEEEEERNSt7__cxx1112basic_stringIcSt11char_traitsIcESaIcEEE+0x72>
      71:	00 
      72:	f2 0f 11 44 24 08    	movsd  %xmm0,0x8(%rsp)
      78:	e8 00 00 00 00       	callq  7d <_Z2prI12SparseMatrixILi4EEEvPT_RNSt6chrono10time_pointINS4_3_V212system_clockENS4_8durationIlSt5ratioILl1ELl1000000000EEEEEERNSt7__cxx1112basic_stringIcSt11char_traitsIcESaIcEEE+0x7d>
      7d:	f2 0f 10 44 24 08    	movsd  0x8(%rsp),%xmm0
      83:	48 8d 3d 00 00 00 00 	lea    0x0(%rip),%rdi        # 8a <_Z2prI12SparseMatrixILi4EEEvPT_RNSt6chrono10time_pointINS4_3_V212system_clockENS4_8durationIlSt5ratioILl1ELl1000000000EEEEEERNSt7__cxx1112basic_stringIcSt11char_traitsIcESaIcEEE+0x8a>
      8a:	e8 00 00 00 00       	callq  8f <_Z2prI12SparseMatrixILi4EEEvPT_RNSt6chrono10time_pointINS4_3_V212system_clockENS4_8durationIlSt5ratioILl1ELl1000000000EEEEEERNSt7__cxx1112basic_stringIcSt11char_traitsIcESaIcEEE+0x8f>
      8f:	48 8d 35 00 00 00 00 	lea    0x0(%rip),%rsi        # 96 <_Z2prI12SparseMatrixILi4EEEvPT_RNSt6chrono10time_pointINS4_3_V212system_clockENS4_8durationIlSt5ratioILl1ELl1000000000EEEEEERNSt7__cxx1112basic_stringIcSt11char_traitsIcESaIcEEE+0x96>
      96:	ba 08 00 00 00       	mov    $0x8,%edx
      9b:	48 89 c3             	mov    %rax,%rbx
      9e:	48 89 c7             	mov    %rax,%rdi
      a1:	e8 00 00 00 00       	callq  a6 <_Z2prI12SparseMatrixILi4EEEvPT_RNSt6chrono10time_pointINS4_3_V212system_clockENS4_8durationIlSt5ratioILl1ELl1000000000EEEEEERNSt7__cxx1112basic_stringIcSt11char_traitsIcESaIcEEE+0xa6>
      a6:	48 89 df             	mov    %rbx,%rdi
      a9:	e8 00 00 00 00       	callq  ae <_Z2prI12SparseMatrixILi4EEEvPT_RNSt6chrono10time_pointINS4_3_V212system_clockENS4_8durationIlSt5ratioILl1ELl1000000000EEEEEERNSt7__cxx1112basic_stringIcSt11char_traitsIcESaIcEEE+0xae>
      ae:	e8 00 00 00 00       	callq  b3 <_Z2prI12SparseMatrixILi4EEEvPT_RNSt6chrono10time_pointINS4_3_V212system_clockENS4_8durationIlSt5ratioILl1ELl1000000000EEEEEERNSt7__cxx1112basic_stringIcSt11char_traitsIcESaIcEEE+0xb3>
      b3:	48 63 5d 00          	movslq 0x0(%rbp),%rbx
      b7:	48 8d bc 24 e0 00 00 	lea    0xe0(%rsp),%rdi
      be:	00 
      bf:	49 89 06             	mov    %rax,(%r14)
      c2:	4c 89 fa             	mov    %r15,%rdx
      c5:	4c 89 bc 24 b8 00 00 	mov    %r15,0xb8(%rsp)
      cc:	00 
      cd:	48 8d 77 10          	lea    0x10(%rdi),%rsi
      d1:	48 89 bc 24 98 00 00 	mov    %rdi,0x98(%rsp)
      d8:	00 
      d9:	89 5c 24 08          	mov    %ebx,0x8(%rsp)
      dd:	48 89 9c 24 20 01 00 	mov    %rbx,0x120(%rsp)
      e4:	00 
      e5:	e8 00 00 00 00       	callq  ea <_Z2prI12SparseMatrixILi4EEEvPT_RNSt6chrono10time_pointINS4_3_V212system_clockENS4_8durationIlSt5ratioILl1ELl1000000000EEEEEERNSt7__cxx1112basic_stringIcSt11char_traitsIcESaIcEEE+0xea>
      ea:	48 8b 84 24 e0 00 00 	mov    0xe0(%rsp),%rax
      f1:	00 
      f2:	48 8d 94 24 d8 00 00 	lea    0xd8(%rsp),%rdx
      f9:	00 
      fa:	49 8d 77 10          	lea    0x10(%r15),%rsi
      fe:	4c 89 ff             	mov    %r15,%rdi
     101:	48 89 9c 24 d8 00 00 	mov    %rbx,0xd8(%rsp)
     108:	00 
     109:	48 89 84 24 00 01 00 	mov    %rax,0x100(%rsp)
     110:	00 
     111:	48 8b 84 24 f0 00 00 	mov    0xf0(%rsp),%rax
     118:	00 
     119:	48 89 84 24 10 01 00 	mov    %rax,0x110(%rsp)
     120:	00 
     121:	e8 00 00 00 00       	callq  126 <_Z2prI12SparseMatrixILi4EEEvPT_RNSt6chrono10time_pointINS4_3_V212system_clockENS4_8durationIlSt5ratioILl1ELl1000000000EEEEEERNSt7__cxx1112basic_stringIcSt11char_traitsIcESaIcEEE+0x126>
     126:	48 8b 84 24 20 01 00 	mov    0x120(%rsp),%rax
     12d:	00 
     12e:	48 89 84 24 40 01 00 	mov    %rax,0x140(%rsp)
     135:	00 
     136:	48 8b 84 24 30 01 00 	mov    0x130(%rsp),%rax
     13d:	00 
     13e:	48 89 84 24 50 01 00 	mov    %rax,0x150(%rsp)
     145:	00 
     146:	48 b8 fe ff ff ff ff 	movabs $0x1ffffffffffffffe,%rax
     14d:	ff ff 1f 
     150:	48 39 c3             	cmp    %rax,%rbx
     153:	0f 87 a2 1e 00 00    	ja     1ffb <_Z2prI12SparseMatrixILi4EEEvPT_RNSt6chrono10time_pointINS4_3_V212system_clockENS4_8durationIlSt5ratioILl1ELl1000000000EEEEEERNSt7__cxx1112basic_stringIcSt11char_traitsIcESaIcEEE+0x1ffb>
     159:	48 8d 3c 9d 00 00 00 	lea    0x0(,%rbx,4),%rdi
     160:	00 
     161:	49 89 de             	mov    %rbx,%r14
     164:	e8 00 00 00 00       	callq  169 <_Z2prI12SparseMatrixILi4EEEvPT_RNSt6chrono10time_pointINS4_3_V212system_clockENS4_8durationIlSt5ratioILl1ELl1000000000EEEEEERNSt7__cxx1112basic_stringIcSt11char_traitsIcESaIcEEE+0x169>
     169:	48 8d 3c dd 00 00 00 	lea    0x0(,%rbx,8),%rdi
     170:	00 
     171:	49 89 c7             	mov    %rax,%r15
     174:	e8 00 00 00 00       	callq  179 <_Z2prI12SparseMatrixILi4EEEvPT_RNSt6chrono10time_pointINS4_3_V212system_clockENS4_8durationIlSt5ratioILl1ELl1000000000EEEEEERNSt7__cxx1112basic_stringIcSt11char_traitsIcESaIcEEE+0x179>
     179:	66 0f ef c0          	pxor   %xmm0,%xmm0
     17d:	45 85 f6             	test   %r14d,%r14d
     180:	f2 0f 10 35 00 00 00 	movsd  0x0(%rip),%xmm6        # 188 <_Z2prI12SparseMatrixILi4EEEvPT_RNSt6chrono10time_pointINS4_3_V212system_clockENS4_8durationIlSt5ratioILl1ELl1000000000EEEEEERNSt7__cxx1112basic_stringIcSt11char_traitsIcESaIcEEE+0x188>
     187:	00 
     188:	48 89 c3             	mov    %rax,%rbx
     18b:	f2 41 0f 2a c6       	cvtsi2sd %r14d,%xmm0
     190:	f2 0f 5e f0          	divsd  %xmm0,%xmm6
     194:	f2 0f 11 b4 24 88 00 	movsd  %xmm6,0x88(%rsp)
     19b:	00 00 
     19d:	0f 8e da 1c 00 00    	jle    1e7d <_Z2prI12SparseMatrixILi4EEEvPT_RNSt6chrono10time_pointINS4_3_V212system_clockENS4_8durationIlSt5ratioILl1ELl1000000000EEEEEERNSt7__cxx1112basic_stringIcSt11char_traitsIcESaIcEEE+0x1e7d>
     1a3:	48 8b 84 24 88 00 00 	mov    0x88(%rsp),%rax
     1aa:	00 
     1ab:	48 8b bc 24 e0 00 00 	mov    0xe0(%rsp),%rdi
     1b2:	00 
     1b3:	48 8b 8c 24 20 01 00 	mov    0x120(%rsp),%rcx
     1ba:	00 
     1bb:	f3 0f 7e 1d 00 00 00 	movq   0x0(%rip),%xmm3        # 1c3 <_Z2prI12SparseMatrixILi4EEEvPT_RNSt6chrono10time_pointINS4_3_V212system_clockENS4_8durationIlSt5ratioILl1ELl1000000000EEEEEERNSt7__cxx1112basic_stringIcSt11char_traitsIcESaIcEEE+0x1c3>
     1c2:	00 
     1c3:	48 c1 e8 20          	shr    $0x20,%rax
     1c7:	89 44 24 10          	mov    %eax,0x10(%rsp)
     1cb:	8b 44 24 08          	mov    0x8(%rsp),%eax
     1cf:	f3 0f 10 4c 24 10    	movss  0x10(%rsp),%xmm1
     1d5:	83 e8 01             	sub    $0x1,%eax
     1d8:	89 84 24 94 00 00 00 	mov    %eax,0x94(%rsp)
     1df:	48 8d 34 85 04 00 00 	lea    0x4(,%rax,4),%rsi
     1e6:	00 
     1e7:	31 c0                	xor    %eax,%eax
     1e9:	0f 1f 80 00 00 00 00 	nopl   0x0(%rax)
     1f0:	f3 0f 11 0c 07       	movss  %xmm1,(%rdi,%rax,1)
     1f5:	c7 04 01 00 00 00 00 	movl   $0x0,(%rcx,%rax,1)
     1fc:	66 0f 28 44 01 fc    	movapd -0x4(%rcx,%rax,1),%xmm0
     202:	66 0f 54 c3          	andpd  %xmm3,%xmm0
     206:	f2 0f 2c d0          	cvttsd2si %xmm0,%edx
     20a:	41 89 14 07          	mov    %edx,(%r15,%rax,1)
     20e:	48 83 c0 04          	add    $0x4,%rax
     212:	48 39 f0             	cmp    %rsi,%rax
     215:	75 d9                	jne    1f0 <_Z2prI12SparseMatrixILi4EEEvPT_RNSt6chrono10time_pointINS4_3_V212system_clockENS4_8durationIlSt5ratioILl1ELl1000000000EEEEEERNSt7__cxx1112basic_stringIcSt11char_traitsIcESaIcEEE+0x1f0>
     217:	8b 7d 00             	mov    0x0(%rbp),%edi
     21a:	85 ff                	test   %edi,%edi
     21c:	0f 8e ad 02 00 00    	jle    4cf <_Z2prI12SparseMatrixILi4EEEvPT_RNSt6chrono10time_pointINS4_3_V212system_clockENS4_8durationIlSt5ratioILl1ELl1000000000EEEEEERNSt7__cxx1112basic_stringIcSt11char_traitsIcESaIcEEE+0x4cf>
     222:	48 8b 55 08          	mov    0x8(%rbp),%rdx
     226:	44 8d 5f ff          	lea    -0x1(%rdi),%r11d
     22a:	45 31 e4             	xor    %r12d,%r12d
     22d:	48 8d 42 04          	lea    0x4(%rdx),%rax
     231:	48 c1 e8 02          	shr    $0x2,%rax
     235:	48 f7 d8             	neg    %rax
     238:	83 e0 03             	and    $0x3,%eax
     23b:	8d 48 03             	lea    0x3(%rax),%ecx
     23e:	44 39 d9             	cmp    %r11d,%ecx
     241:	0f 87 db 00 00 00    	ja     322 <_Z2prI12SparseMatrixILi4EEEvPT_RNSt6chrono10time_pointINS4_3_V212system_clockENS4_8durationIlSt5ratioILl1ELl1000000000EEEEEERNSt7__cxx1112basic_stringIcSt11char_traitsIcESaIcEEE+0x322>
     247:	85 c0                	test   %eax,%eax
     249:	74 7c                	je     2c7 <_Z2prI12SparseMatrixILi4EEEvPT_RNSt6chrono10time_pointINS4_3_V212system_clockENS4_8durationIlSt5ratioILl1ELl1000000000EEEEEERNSt7__cxx1112basic_stringIcSt11char_traitsIcESaIcEEE+0x2c7>
     24b:	83 f8 03             	cmp    $0x3,%eax
     24e:	0f 85 42 1d 00 00    	jne    1f96 <_Z2prI12SparseMatrixILi4EEEvPT_RNSt6chrono10time_pointINS4_3_V212system_clockENS4_8durationIlSt5ratioILl1ELl1000000000EEEEEERNSt7__cxx1112basic_stringIcSt11char_traitsIcESaIcEEE+0x1f96>
     254:	8b 4a 04             	mov    0x4(%rdx),%ecx
     257:	41 ba 02 00 00 00    	mov    $0x2,%r10d
     25d:	41 b9 02 00 00 00    	mov    $0x2,%r9d
     263:	89 ce                	mov    %ecx,%esi
     265:	2b 32                	sub    (%rdx),%esi
     267:	41 89 37             	mov    %esi,(%r15)
     26a:	8b 72 08             	mov    0x8(%rdx),%esi
     26d:	29 ce                	sub    %ecx,%esi
     26f:	41 89 77 04          	mov    %esi,0x4(%r15)
     273:	49 63 f1             	movslq %r9d,%rsi
     276:	45 8d 61 01          	lea    0x1(%r9),%r12d
     27a:	48 83 c6 01          	add    $0x1,%rsi
     27e:	48 8d 0c b5 00 00 00 	lea    0x0(,%rsi,4),%rcx
     285:	00 
     286:	44 8b 04 b2          	mov    (%rdx,%rsi,4),%r8d
     28a:	44 2b 44 0a fc       	sub    -0x4(%rdx,%rcx,1),%r8d
     28f:	45 89 44 0f fc       	mov    %r8d,-0x4(%r15,%rcx,1)
     294:	45 8d 42 01          	lea    0x1(%r10),%r8d
     298:	44 39 c0             	cmp    %r8d,%eax
     29b:	76 2a                	jbe    2c7 <_Z2prI12SparseMatrixILi4EEEvPT_RNSt6chrono10time_pointINS4_3_V212system_clockENS4_8durationIlSt5ratioILl1ELl1000000000EEEEEERNSt7__cxx1112basic_stringIcSt11char_traitsIcESaIcEEE+0x2c7>
     29d:	44 8b 44 0a 04       	mov    0x4(%rdx,%rcx,1),%r8d
     2a2:	44 2b 04 b2          	sub    (%rdx,%rsi,4),%r8d
     2a6:	45 8d 61 02          	lea    0x2(%r9),%r12d
     2aa:	45 89 04 b7          	mov    %r8d,(%r15,%rsi,4)
     2ae:	41 8d 72 02          	lea    0x2(%r10),%esi
     2b2:	39 f0                	cmp    %esi,%eax
     2b4:	76 11                	jbe    2c7 <_Z2prI12SparseMatrixILi4EEEvPT_RNSt6chrono10time_pointINS4_3_V212system_clockENS4_8durationIlSt5ratioILl1ELl1000000000EEEEEERNSt7__cxx1112basic_stringIcSt11char_traitsIcESaIcEEE+0x2c7>
     2b6:	8b 74 0a 08          	mov    0x8(%rdx,%rcx,1),%esi
     2ba:	2b 74 0a 04          	sub    0x4(%rdx,%rcx,1),%esi
     2be:	45 8d 61 03          	lea    0x3(%r9),%r12d
     2c2:	41 89 74 0f 04       	mov    %esi,0x4(%r15,%rcx,1)
     2c7:	48 8d 34 85 04 00 00 	lea    0x4(,%rax,4),%rsi
     2ce:	00 
     2cf:	41 89 fd             	mov    %edi,%r13d
     2d2:	31 c9                	xor    %ecx,%ecx
     2d4:	41 29 c5             	sub    %eax,%r13d
     2d7:	31 c0                	xor    %eax,%eax
     2d9:	45 89 ea             	mov    %r13d,%r10d
     2dc:	4c 8d 0c 32          	lea    (%rdx,%rsi,1),%r9
     2e0:	48 83 ee 04          	sub    $0x4,%rsi
     2e4:	4c 8d 04 32          	lea    (%rdx,%rsi,1),%r8
     2e8:	41 c1 ea 02          	shr    $0x2,%r10d
     2ec:	4c 01 fe             	add    %r15,%rsi
     2ef:	90                   	nop
     2f0:	66 41 0f 6f 04 01    	movdqa (%r9,%rax,1),%xmm0
     2f6:	83 c1 01             	add    $0x1,%ecx
     2f9:	f3 41 0f 6f 34 00    	movdqu (%r8,%rax,1),%xmm6
     2ff:	66 0f fa c6          	psubd  %xmm6,%xmm0
     303:	0f 11 04 06          	movups %xmm0,(%rsi,%rax,1)
     307:	48 83 c0 10          	add    $0x10,%rax
     30b:	41 39 ca             	cmp    %ecx,%r10d
     30e:	77 e0                	ja     2f0 <_Z2prI12SparseMatrixILi4EEEvPT_RNSt6chrono10time_pointINS4_3_V212system_clockENS4_8durationIlSt5ratioILl1ELl1000000000EEEEEERNSt7__cxx1112basic_stringIcSt11char_traitsIcESaIcEEE+0x2f0>
     310:	44 89 e8             	mov    %r13d,%eax
     313:	83 e0 fc             	and    $0xfffffffc,%eax
     316:	41 01 c4             	add    %eax,%r12d
     319:	44 39 e8             	cmp    %r13d,%eax
     31c:	0f 84 ad 01 00 00    	je     4cf <_Z2prI12SparseMatrixILi4EEEvPT_RNSt6chrono10time_pointINS4_3_V212system_clockENS4_8durationIlSt5ratioILl1ELl1000000000EEEEEERNSt7__cxx1112basic_stringIcSt11char_traitsIcESaIcEEE+0x4cf>
     322:	49 63 cc             	movslq %r12d,%rcx
     325:	41 8d 74 24 01       	lea    0x1(%r12),%esi
     32a:	48 8d 04 8d 00 00 00 	lea    0x0(,%rcx,4),%rax
     331:	00 
     332:	44 39 de             	cmp    %r11d,%esi
     335:	4c 8d 04 02          	lea    (%rdx,%rax,1),%r8
     339:	0f 8d 4f 1c 00 00    	jge    1f8e <_Z2prI12SparseMatrixILi4EEEvPT_RNSt6chrono10time_pointINS4_3_V212system_clockENS4_8durationIlSt5ratioILl1ELl1000000000EEEEEERNSt7__cxx1112basic_stringIcSt11char_traitsIcESaIcEEE+0x1f8e>
     33f:	41 39 fc             	cmp    %edi,%r12d
     342:	0f 8d 46 1c 00 00    	jge    1f8e <_Z2prI12SparseMatrixILi4EEEvPT_RNSt6chrono10time_pointINS4_3_V212system_clockENS4_8durationIlSt5ratioILl1ELl1000000000EEEEEERNSt7__cxx1112basic_stringIcSt11char_traitsIcESaIcEEE+0x1f8e>
     348:	44 8b 4c 02 04       	mov    0x4(%rdx,%rax,1),%r9d
     34d:	44 89 ce             	mov    %r9d,%esi
     350:	41 2b 30             	sub    (%r8),%esi
     353:	44 8b 44 02 08       	mov    0x8(%rdx,%rax,1),%r8d
     358:	41 89 34 8f          	mov    %esi,(%r15,%rcx,4)
     35c:	41 8d 74 24 03       	lea    0x3(%r12),%esi
     361:	44 89 c1             	mov    %r8d,%ecx
     364:	44 29 c9             	sub    %r9d,%ecx
     367:	41 39 f3             	cmp    %esi,%r11d
     36a:	41 89 4c 07 04       	mov    %ecx,0x4(%r15,%rax,1)
     36f:	41 8d 4c 24 02       	lea    0x2(%r12),%ecx
     374:	0f 8e d2 00 00 00    	jle    44c <_Z2prI12SparseMatrixILi4EEEvPT_RNSt6chrono10time_pointINS4_3_V212system_clockENS4_8durationIlSt5ratioILl1ELl1000000000EEEEEERNSt7__cxx1112basic_stringIcSt11char_traitsIcESaIcEEE+0x44c>
     37a:	8b 4c 02 0c          	mov    0xc(%rdx,%rax,1),%ecx
     37e:	89 ce                	mov    %ecx,%esi
     380:	44 29 c6             	sub    %r8d,%esi
     383:	44 8b 44 02 10       	mov    0x10(%rdx,%rax,1),%r8d
     388:	41 89 74 07 08       	mov    %esi,0x8(%r15,%rax,1)
     38d:	44 89 c6             	mov    %r8d,%esi
     390:	29 ce                	sub    %ecx,%esi
     392:	41 8d 4c 24 04       	lea    0x4(%r12),%ecx
     397:	41 89 74 07 0c       	mov    %esi,0xc(%r15,%rax,1)
     39c:	41 8d 74 24 05       	lea    0x5(%r12),%esi
     3a1:	41 39 f3             	cmp    %esi,%r11d
     3a4:	0f 8e a2 00 00 00    	jle    44c <_Z2prI12SparseMatrixILi4EEEvPT_RNSt6chrono10time_pointINS4_3_V212system_clockENS4_8durationIlSt5ratioILl1ELl1000000000EEEEEERNSt7__cxx1112basic_stringIcSt11char_traitsIcESaIcEEE+0x44c>
     3aa:	8b 4c 02 14          	mov    0x14(%rdx,%rax,1),%ecx
     3ae:	89 ce                	mov    %ecx,%esi
     3b0:	44 29 c6             	sub    %r8d,%esi
     3b3:	44 8b 44 02 18       	mov    0x18(%rdx,%rax,1),%r8d
     3b8:	41 89 74 07 10       	mov    %esi,0x10(%r15,%rax,1)
     3bd:	44 89 c6             	mov    %r8d,%esi
     3c0:	29 ce                	sub    %ecx,%esi
     3c2:	41 8d 4c 24 06       	lea    0x6(%r12),%ecx
     3c7:	41 89 74 07 14       	mov    %esi,0x14(%r15,%rax,1)
     3cc:	41 8d 74 24 07       	lea    0x7(%r12),%esi
     3d1:	41 39 f3             	cmp    %esi,%r11d
     3d4:	7e 76                	jle    44c <_Z2prI12SparseMatrixILi4EEEvPT_RNSt6chrono10time_pointINS4_3_V212system_clockENS4_8durationIlSt5ratioILl1ELl1000000000EEEEEERNSt7__cxx1112basic_stringIcSt11char_traitsIcESaIcEEE+0x44c>
     3d6:	8b 4c 02 1c          	mov    0x1c(%rdx,%rax,1),%ecx
     3da:	89 ce                	mov    %ecx,%esi
     3dc:	44 29 c6             	sub    %r8d,%esi
     3df:	44 8b 44 02 20       	mov    0x20(%rdx,%rax,1),%r8d
     3e4:	41 89 74 07 18       	mov    %esi,0x18(%r15,%rax,1)
     3e9:	44 89 c6             	mov    %r8d,%esi
     3ec:	29 ce                	sub    %ecx,%esi
     3ee:	41 8d 4c 24 08       	lea    0x8(%r12),%ecx
     3f3:	41 89 74 07 1c       	mov    %esi,0x1c(%r15,%rax,1)
     3f8:	41 8d 74 24 09       	lea    0x9(%r12),%esi
     3fd:	41 39 f3             	cmp    %esi,%r11d
     400:	7e 4a                	jle    44c <_Z2prI12SparseMatrixILi4EEEvPT_RNSt6chrono10time_pointINS4_3_V212system_clockENS4_8durationIlSt5ratioILl1ELl1000000000EEEEEERNSt7__cxx1112basic_stringIcSt11char_traitsIcESaIcEEE+0x44c>
     402:	8b 4c 02 24          	mov    0x24(%rdx,%rax,1),%ecx
     406:	89 ce                	mov    %ecx,%esi
     408:	44 29 c6             	sub    %r8d,%esi
     40b:	44 8b 44 02 28       	mov    0x28(%rdx,%rax,1),%r8d
     410:	41 89 74 07 20       	mov    %esi,0x20(%r15,%rax,1)
     415:	44 89 c6             	mov    %r8d,%esi
     418:	29 ce                	sub    %ecx,%esi
     41a:	41 8d 4c 24 0a       	lea    0xa(%r12),%ecx
     41f:	41 89 74 07 24       	mov    %esi,0x24(%r15,%rax,1)
     424:	41 8d 74 24 0b       	lea    0xb(%r12),%esi
     429:	41 39 f3             	cmp    %esi,%r11d
     42c:	7e 1e                	jle    44c <_Z2prI12SparseMatrixILi4EEEvPT_RNSt6chrono10time_pointINS4_3_V212system_clockENS4_8durationIlSt5ratioILl1ELl1000000000EEEEEERNSt7__cxx1112basic_stringIcSt11char_traitsIcESaIcEEE+0x44c>
     42e:	8b 4c 02 2c          	mov    0x2c(%rdx,%rax,1),%ecx
     432:	89 ce                	mov    %ecx,%esi
     434:	44 29 c6             	sub    %r8d,%esi
     437:	41 89 74 07 28       	mov    %esi,0x28(%r15,%rax,1)
     43c:	8b 74 02 30          	mov    0x30(%rdx,%rax,1),%esi
     440:	29 ce                	sub    %ecx,%esi
     442:	41 8d 4c 24 0c       	lea    0xc(%r12),%ecx
     447:	41 89 74 07 2c       	mov    %esi,0x2c(%r15,%rax,1)
     44c:	48 63 f1             	movslq %ecx,%rsi
     44f:	48 83 c6 01          	add    $0x1,%rsi
     453:	48 8d 04 b5 00 00 00 	lea    0x0(,%rsi,4),%rax
     45a:	00 
     45b:	44 8b 04 b2          	mov    (%rdx,%rsi,4),%r8d
     45f:	44 2b 44 02 fc       	sub    -0x4(%rdx,%rax,1),%r8d
     464:	45 89 44 07 fc       	mov    %r8d,-0x4(%r15,%rax,1)
     469:	44 8d 41 01          	lea    0x1(%rcx),%r8d
     46d:	44 39 c7             	cmp    %r8d,%edi
     470:	7e 5d                	jle    4cf <_Z2prI12SparseMatrixILi4EEEvPT_RNSt6chrono10time_pointINS4_3_V212system_clockENS4_8durationIlSt5ratioILl1ELl1000000000EEEEEERNSt7__cxx1112basic_stringIcSt11char_traitsIcESaIcEEE+0x4cf>
     472:	44 8b 44 02 04       	mov    0x4(%rdx,%rax,1),%r8d
     477:	44 2b 04 b2          	sub    (%rdx,%rsi,4),%r8d
     47b:	45 89 04 b7          	mov    %r8d,(%r15,%rsi,4)
     47f:	8d 71 02             	lea    0x2(%rcx),%esi
     482:	39 f7                	cmp    %esi,%edi
     484:	7e 49                	jle    4cf <_Z2prI12SparseMatrixILi4EEEvPT_RNSt6chrono10time_pointINS4_3_V212system_clockENS4_8durationIlSt5ratioILl1ELl1000000000EEEEEERNSt7__cxx1112basic_stringIcSt11char_traitsIcESaIcEEE+0x4cf>
     486:	8b 74 02 08          	mov    0x8(%rdx,%rax,1),%esi
     48a:	2b 74 02 04          	sub    0x4(%rdx,%rax,1),%esi
     48e:	41 89 74 07 04       	mov    %esi,0x4(%r15,%rax,1)
     493:	8d 71 03             	lea    0x3(%rcx),%esi
     496:	39 f7                	cmp    %esi,%edi
     498:	7e 35                	jle    4cf <_Z2prI12SparseMatrixILi4EEEvPT_RNSt6chrono10time_pointINS4_3_V212system_clockENS4_8durationIlSt5ratioILl1ELl1000000000EEEEEERNSt7__cxx1112basic_stringIcSt11char_traitsIcESaIcEEE+0x4cf>
     49a:	8b 74 02 0c          	mov    0xc(%rdx,%rax,1),%esi
     49e:	2b 74 02 08          	sub    0x8(%rdx,%rax,1),%esi
     4a2:	41 89 74 07 08       	mov    %esi,0x8(%r15,%rax,1)
     4a7:	8d 71 04             	lea    0x4(%rcx),%esi
     4aa:	39 f7                	cmp    %esi,%edi
     4ac:	7e 21                	jle    4cf <_Z2prI12SparseMatrixILi4EEEvPT_RNSt6chrono10time_pointINS4_3_V212system_clockENS4_8durationIlSt5ratioILl1ELl1000000000EEEEEERNSt7__cxx1112basic_stringIcSt11char_traitsIcESaIcEEE+0x4cf>
     4ae:	8b 74 02 10          	mov    0x10(%rdx,%rax,1),%esi
     4b2:	2b 74 02 0c          	sub    0xc(%rdx,%rax,1),%esi
     4b6:	83 c1 05             	add    $0x5,%ecx
     4b9:	39 cf                	cmp    %ecx,%edi
     4bb:	41 89 74 07 0c       	mov    %esi,0xc(%r15,%rax,1)
     4c0:	7e 0d                	jle    4cf <_Z2prI12SparseMatrixILi4EEEvPT_RNSt6chrono10time_pointINS4_3_V212system_clockENS4_8durationIlSt5ratioILl1ELl1000000000EEEEEERNSt7__cxx1112basic_stringIcSt11char_traitsIcESaIcEEE+0x4cf>
     4c2:	8b 4c 02 14          	mov    0x14(%rdx,%rax,1),%ecx
     4c6:	2b 4c 02 10          	sub    0x10(%rdx,%rax,1),%ecx
     4ca:	41 89 4c 07 10       	mov    %ecx,0x10(%r15,%rax,1)
     4cf:	e8 00 00 00 00       	callq  4d4 <_Z2prI12SparseMatrixILi4EEEvPT_RNSt6chrono10time_pointINS4_3_V212system_clockENS4_8durationIlSt5ratioILl1ELl1000000000EEEEEERNSt7__cxx1112basic_stringIcSt11char_traitsIcESaIcEEE+0x4d4>
     4d4:	4c 8b 34 24          	mov    (%rsp),%r14
     4d8:	66 0f ef c0          	pxor   %xmm0,%xmm0
     4dc:	48 8d 35 00 00 00 00 	lea    0x0(%rip),%rsi        # 4e3 <_Z2prI12SparseMatrixILi4EEEvPT_RNSt6chrono10time_pointINS4_3_V212system_clockENS4_8durationIlSt5ratioILl1ELl1000000000EEEEEERNSt7__cxx1112basic_stringIcSt11char_traitsIcESaIcEEE+0x4e3>
     4e3:	48 8d 3d 00 00 00 00 	lea    0x0(%rip),%rdi        # 4ea <_Z2prI12SparseMatrixILi4EEEvPT_RNSt6chrono10time_pointINS4_3_V212system_clockENS4_8durationIlSt5ratioILl1ELl1000000000EEEEEERNSt7__cxx1112basic_stringIcSt11char_traitsIcESaIcEEE+0x4ea>
     4ea:	ba 10 00 00 00       	mov    $0x10,%edx
     4ef:	45 31 ed             	xor    %r13d,%r13d
     4f2:	49 2b 06             	sub    (%r14),%rax
     4f5:	f2 48 0f 2a c0       	cvtsi2sd %rax,%xmm0
     4fa:	f2 0f 59 05 00 00 00 	mulsd  0x0(%rip),%xmm0        # 502 <_Z2prI12SparseMatrixILi4EEEvPT_RNSt6chrono10time_pointINS4_3_V212system_clockENS4_8durationIlSt5ratioILl1ELl1000000000EEEEEERNSt7__cxx1112basic_stringIcSt11char_traitsIcESaIcEEE+0x502>
     501:	00 
     502:	f2 0f 11 44 24 10    	movsd  %xmm0,0x10(%rsp)
     508:	e8 00 00 00 00       	callq  50d <_Z2prI12SparseMatrixILi4EEEvPT_RNSt6chrono10time_pointINS4_3_V212system_clockENS4_8durationIlSt5ratioILl1ELl1000000000EEEEEERNSt7__cxx1112basic_stringIcSt11char_traitsIcESaIcEEE+0x50d>
     50d:	f2 0f 10 44 24 10    	movsd  0x10(%rsp),%xmm0
     513:	48 8d 3d 00 00 00 00 	lea    0x0(%rip),%rdi        # 51a <_Z2prI12SparseMatrixILi4EEEvPT_RNSt6chrono10time_pointINS4_3_V212system_clockENS4_8durationIlSt5ratioILl1ELl1000000000EEEEEERNSt7__cxx1112basic_stringIcSt11char_traitsIcESaIcEEE+0x51a>
     51a:	e8 00 00 00 00       	callq  51f <_Z2prI12SparseMatrixILi4EEEvPT_RNSt6chrono10time_pointINS4_3_V212system_clockENS4_8durationIlSt5ratioILl1ELl1000000000EEEEEERNSt7__cxx1112basic_stringIcSt11char_traitsIcESaIcEEE+0x51f>
     51f:	48 8d 35 00 00 00 00 	lea    0x0(%rip),%rsi        # 526 <_Z2prI12SparseMatrixILi4EEEvPT_RNSt6chrono10time_pointINS4_3_V212system_clockENS4_8durationIlSt5ratioILl1ELl1000000000EEEEEERNSt7__cxx1112basic_stringIcSt11char_traitsIcESaIcEEE+0x526>
     526:	ba 08 00 00 00       	mov    $0x8,%edx
     52b:	49 89 c4             	mov    %rax,%r12
     52e:	48 89 c7             	mov    %rax,%rdi
     531:	e8 00 00 00 00       	callq  536 <_Z2prI12SparseMatrixILi4EEEvPT_RNSt6chrono10time_pointINS4_3_V212system_clockENS4_8durationIlSt5ratioILl1ELl1000000000EEEEEERNSt7__cxx1112basic_stringIcSt11char_traitsIcESaIcEEE+0x536>
     536:	4c 89 e7             	mov    %r12,%rdi
     539:	e8 00 00 00 00       	callq  53e <_Z2prI12SparseMatrixILi4EEEvPT_RNSt6chrono10time_pointINS4_3_V212system_clockENS4_8durationIlSt5ratioILl1ELl1000000000EEEEEERNSt7__cxx1112basic_stringIcSt11char_traitsIcESaIcEEE+0x53e>
     53e:	e8 00 00 00 00       	callq  543 <_Z2prI12SparseMatrixILi4EEEvPT_RNSt6chrono10time_pointINS4_3_V212system_clockENS4_8durationIlSt5ratioILl1ELl1000000000EEEEEERNSt7__cxx1112basic_stringIcSt11char_traitsIcESaIcEEE+0x543>
     543:	49 89 06             	mov    %rax,(%r14)
     546:	e8 00 00 00 00       	callq  54b <_Z2prI12SparseMatrixILi4EEEvPT_RNSt6chrono10time_pointINS4_3_V212system_clockENS4_8durationIlSt5ratioILl1ELl1000000000EEEEEERNSt7__cxx1112basic_stringIcSt11char_traitsIcESaIcEEE+0x54b>
     54b:	48 89 84 24 c8 00 00 	mov    %rax,0xc8(%rsp)
     552:	00 
     553:	8b 84 24 94 00 00 00 	mov    0x94(%rsp),%eax
     55a:	f3 0f 7e 1d 00 00 00 	movq   0x0(%rip),%xmm3        # 562 <_Z2prI12SparseMatrixILi4EEEvPT_RNSt6chrono10time_pointINS4_3_V212system_clockENS4_8durationIlSt5ratioILl1ELl1000000000EEEEEERNSt7__cxx1112basic_stringIcSt11char_traitsIcESaIcEEE+0x562>
     561:	00 
     562:	44 89 6c 24 10       	mov    %r13d,0x10(%rsp)
     567:	44 8b 6c 24 08       	mov    0x8(%rsp),%r13d
     56c:	f2 0f 10 35 00 00 00 	movsd  0x0(%rip),%xmm6        # 574 <_Z2prI12SparseMatrixILi4EEEvPT_RNSt6chrono10time_pointINS4_3_V212system_clockENS4_8durationIlSt5ratioILl1ELl1000000000EEEEEERNSt7__cxx1112basic_stringIcSt11char_traitsIcESaIcEEE+0x574>
     573:	00 
     574:	66 0f 28 e3          	movapd %xmm3,%xmm4
     578:	4c 8d 34 85 00 00 00 	lea    0x0(,%rax,4),%r14
     57f:	00 
     580:	48 83 c0 01          	add    $0x1,%rax
     584:	48 89 84 24 a8 00 00 	mov    %rax,0xa8(%rsp)
     58b:	00 
     58c:	f3 0f 7e 2d 00 00 00 	movq   0x0(%rip),%xmm5        # 594 <_Z2prI12SparseMatrixILi4EEEvPT_RNSt6chrono10time_pointINS4_3_V212system_clockENS4_8durationIlSt5ratioILl1ELl1000000000EEEEEERNSt7__cxx1112basic_stringIcSt11char_traitsIcESaIcEEE+0x594>
     593:	00 
     594:	48 c1 e0 02          	shl    $0x2,%rax
     598:	4c 89 b4 24 a0 00 00 	mov    %r14,0xa0(%rsp)
     59f:	00 
     5a0:	48 89 84 24 b0 00 00 	mov    %rax,0xb0(%rsp)
     5a7:	00 
     5a8:	0f 1f 84 00 00 00 00 	nopl   0x0(%rax,%rax,1)
     5af:	00 
     5b0:	8b 45 00             	mov    0x0(%rbp),%eax
     5b3:	85 c0                	test   %eax,%eax
     5b5:	0f 8e b6 00 00 00    	jle    671 <_Z2prI12SparseMatrixILi4EEEvPT_RNSt6chrono10time_pointINS4_3_V212system_clockENS4_8durationIlSt5ratioILl1ELl1000000000EEEEEERNSt7__cxx1112basic_stringIcSt11char_traitsIcESaIcEEE+0x671>
     5bb:	83 e8 01             	sub    $0x1,%eax
     5be:	48 8b 94 24 e0 00 00 	mov    0xe0(%rsp),%rdx
     5c5:	00 
     5c6:	31 f6                	xor    %esi,%esi
     5c8:	48 8d 04 85 04 00 00 	lea    0x4(,%rax,4),%rax
     5cf:	00 
     5d0:	66 0f 28 44 32 fc    	movapd -0x4(%rdx,%rsi,1),%xmm0
     5d6:	66 0f ef c9          	pxor   %xmm1,%xmm1
     5da:	66 0f 54 c3          	andpd  %xmm3,%xmm0
     5de:	f2 41 0f 2a 0c 37    	cvtsi2sdl (%r15,%rsi,1),%xmm1
     5e4:	f2 0f 5e c1          	divsd  %xmm1,%xmm0
     5e8:	f2 0f 59 c6          	mulsd  %xmm6,%xmm0
     5ec:	f2 0f 11 04 73       	movsd  %xmm0,(%rbx,%rsi,2)
     5f1:	48 83 c6 04          	add    $0x4,%rsi
     5f5:	48 39 c6             	cmp    %rax,%rsi
     5f8:	75 d6                	jne    5d0 <_Z2prI12SparseMatrixILi4EEEvPT_RNSt6chrono10time_pointINS4_3_V212system_clockENS4_8durationIlSt5ratioILl1ELl1000000000EEEEEERNSt7__cxx1112basic_stringIcSt11char_traitsIcESaIcEEE+0x5d0>
     5fa:	4c 8b 5d 08          	mov    0x8(%rbp),%r11
     5fe:	4c 8b 84 24 20 01 00 	mov    0x120(%rsp),%r8
     605:	00 
     606:	31 ff                	xor    %edi,%edi
     608:	0f 1f 84 00 00 00 00 	nopl   0x0(%rax,%rax,1)
     60f:	00 
     610:	45 8b 14 3b          	mov    (%r11,%rdi,1),%r10d
     614:	41 8b 44 3b 04       	mov    0x4(%r11,%rdi,1),%eax
     619:	41 39 c2             	cmp    %eax,%r10d
     61c:	7d 4a                	jge    668 <_Z2prI12SparseMatrixILi4EEEvPT_RNSt6chrono10time_pointINS4_3_V212system_clockENS4_8durationIlSt5ratioILl1ELl1000000000EEEEEERNSt7__cxx1112basic_stringIcSt11char_traitsIcESaIcEEE+0x668>
     61e:	48 8b 4d 10          	mov    0x10(%rbp),%rcx
     622:	83 e8 01             	sub    $0x1,%eax
     625:	4d 63 ca             	movslq %r10d,%r9
     628:	44 29 d0             	sub    %r10d,%eax
     62b:	f2 0f 10 0c 7b       	movsd  (%rbx,%rdi,2),%xmm1
     630:	4c 01 c8             	add    %r9,%rax
     633:	4a 8d 14 89          	lea    (%rcx,%r9,4),%rdx
     637:	4c 8d 4c 81 04       	lea    0x4(%rcx,%rax,4),%r9
     63c:	0f 1f 40 00          	nopl   0x0(%rax)
     640:	48 63 02             	movslq (%rdx),%rax
     643:	48 83 c2 04          	add    $0x4,%rdx
     647:	49 8d 0c 80          	lea    (%r8,%rax,4),%rcx
     64b:	66 0f 28 41 fc       	movapd -0x4(%rcx),%xmm0
     650:	66 0f 54 c3          	andpd  %xmm3,%xmm0
     654:	f2 0f 58 c1          	addsd  %xmm1,%xmm0
     658:	66 48 0f 7e c0       	movq   %xmm0,%rax
     65d:	48 c1 e8 20          	shr    $0x20,%rax
     661:	4c 39 ca             	cmp    %r9,%rdx
     664:	89 01                	mov    %eax,(%rcx)
     666:	75 d8                	jne    640 <_Z2prI12SparseMatrixILi4EEEvPT_RNSt6chrono10time_pointINS4_3_V212system_clockENS4_8durationIlSt5ratioILl1ELl1000000000EEEEEERNSt7__cxx1112basic_stringIcSt11char_traitsIcESaIcEEE+0x640>
     668:	48 83 c7 04          	add    $0x4,%rdi
     66c:	48 39 f7             	cmp    %rsi,%rdi
     66f:	75 9f                	jne    610 <_Z2prI12SparseMatrixILi4EEEvPT_RNSt6chrono10time_pointINS4_3_V212system_clockENS4_8durationIlSt5ratioILl1ELl1000000000EEEEEERNSt7__cxx1112basic_stringIcSt11char_traitsIcESaIcEEE+0x610>
     671:	8b 44 24 10          	mov    0x10(%rsp),%eax
     675:	45 85 ed             	test   %r13d,%r13d
     678:	44 8d 60 01          	lea    0x1(%rax),%r12d
     67c:	0f 8e 8d 04 00 00    	jle    b0f <_Z2prI12SparseMatrixILi4EEEvPT_RNSt6chrono10time_pointINS4_3_V212system_clockENS4_8durationIlSt5ratioILl1ELl1000000000EEEEEERNSt7__cxx1112basic_stringIcSt11char_traitsIcESaIcEEE+0xb0f>
     682:	48 8b 94 24 20 01 00 	mov    0x120(%rsp),%rdx
     689:	00 
     68a:	66 0f ef c0          	pxor   %xmm0,%xmm0
     68e:	66 0f ef c9          	pxor   %xmm1,%xmm1
     692:	4a 8d 44 32 04       	lea    0x4(%rdx,%r14,1),%rax
     697:	48 89 d6             	mov    %rdx,%rsi
     69a:	66 0f 1f 44 00 00    	nopw   0x0(%rax,%rax,1)
     6a0:	66 0f 28 56 fc       	movapd -0x4(%rsi),%xmm2
     6a5:	48 83 c6 04          	add    $0x4,%rsi
     6a9:	48 39 c6             	cmp    %rax,%rsi
     6ac:	66 0f 54 d4          	andpd  %xmm4,%xmm2
     6b0:	f2 0f 58 ca          	addsd  %xmm2,%xmm1
     6b4:	66 0f 28 d1          	movapd %xmm1,%xmm2
     6b8:	f2 0f 58 d0          	addsd  %xmm0,%xmm2
     6bc:	f2 0f 5c c2          	subsd  %xmm2,%xmm0
     6c0:	f2 0f 58 c8          	addsd  %xmm0,%xmm1
     6c4:	66 0f 28 c2          	movapd %xmm2,%xmm0
     6c8:	75 d6                	jne    6a0 <_Z2prI12SparseMatrixILi4EEEvPT_RNSt6chrono10time_pointINS4_3_V212system_clockENS4_8durationIlSt5ratioILl1ELl1000000000EEEEEERNSt7__cxx1112basic_stringIcSt11char_traitsIcESaIcEEE+0x6a0>
     6ca:	f2 0f 10 0d 00 00 00 	movsd  0x0(%rip),%xmm1        # 6d2 <_Z2prI12SparseMatrixILi4EEEvPT_RNSt6chrono10time_pointINS4_3_V212system_clockENS4_8durationIlSt5ratioILl1ELl1000000000EEEEEERNSt7__cxx1112basic_stringIcSt11char_traitsIcESaIcEEE+0x6d2>
     6d1:	00 
     6d2:	48 89 d1             	mov    %rdx,%rcx
     6d5:	f2 0f 5c ca          	subsd  %xmm2,%xmm1
     6d9:	f2 0f 59 8c 24 88 00 	mulsd  0x88(%rsp),%xmm1
     6e0:	00 00 
     6e2:	66 0f 1f 44 00 00    	nopw   0x0(%rax,%rax,1)
     6e8:	66 0f 28 41 fc       	movapd -0x4(%rcx),%xmm0
     6ed:	48 83 c1 04          	add    $0x4,%rcx
     6f1:	66 0f 54 c4          	andpd  %xmm4,%xmm0
     6f5:	f2 0f 58 c1          	addsd  %xmm1,%xmm0
     6f9:	66 48 0f 7e c0       	movq   %xmm0,%rax
     6fe:	48 c1 e8 20          	shr    $0x20,%rax
     702:	89 41 fc             	mov    %eax,-0x4(%rcx)
     705:	48 39 f1             	cmp    %rsi,%rcx
     708:	75 de                	jne    6e8 <_Z2prI12SparseMatrixILi4EEEvPT_RNSt6chrono10time_pointINS4_3_V212system_clockENS4_8durationIlSt5ratioILl1ELl1000000000EEEEEERNSt7__cxx1112basic_stringIcSt11char_traitsIcESaIcEEE+0x6e8>
     70a:	48 8b b4 24 e0 00 00 	mov    0xe0(%rsp),%rsi
     711:	00 
     712:	66 0f ef c0          	pxor   %xmm0,%xmm0
     716:	66 0f ef c9          	pxor   %xmm1,%xmm1
     71a:	48 c7 c0 fc ff ff ff 	mov    $0xfffffffffffffffc,%rax
     721:	0f 1f 80 00 00 00 00 	nopl   0x0(%rax)
     728:	66 0f 28 14 02       	movapd (%rdx,%rax,1),%xmm2
     72d:	66 0f 28 3c 06       	movapd (%rsi,%rax,1),%xmm7
     732:	48 83 c0 04          	add    $0x4,%rax
     736:	66 0f 54 d4          	andpd  %xmm4,%xmm2
     73a:	4c 39 f0             	cmp    %r14,%rax
     73d:	66 0f 54 fc          	andpd  %xmm4,%xmm7
     741:	f2 0f 5c d7          	subsd  %xmm7,%xmm2
     745:	66 0f 54 d5          	andpd  %xmm5,%xmm2
     749:	f2 0f 58 ca          	addsd  %xmm2,%xmm1
     74d:	66 0f 28 f9          	movapd %xmm1,%xmm7
     751:	f2 0f 58 f8          	addsd  %xmm0,%xmm7
     755:	f2 0f 5c c7          	subsd  %xmm7,%xmm0
     759:	f2 0f 58 c8          	addsd  %xmm0,%xmm1
     75d:	66 0f 28 c7          	movapd %xmm7,%xmm0
     761:	75 c5                	jne    728 <_Z2prI12SparseMatrixILi4EEEvPT_RNSt6chrono10time_pointINS4_3_V212system_clockENS4_8durationIlSt5ratioILl1ELl1000000000EEEEEERNSt7__cxx1112basic_stringIcSt11char_traitsIcESaIcEEE+0x728>
     763:	48 8d 46 10          	lea    0x10(%rsi),%rax
     767:	48 39 c2             	cmp    %rax,%rdx
     76a:	48 8d 42 10          	lea    0x10(%rdx),%rax
     76e:	0f 93 c1             	setae  %cl
     771:	48 39 c6             	cmp    %rax,%rsi
     774:	0f 93 c0             	setae  %al
     777:	08 c1                	or     %al,%cl
     779:	0f 84 65 03 00 00    	je     ae4 <_Z2prI12SparseMatrixILi4EEEvPT_RNSt6chrono10time_pointINS4_3_V212system_clockENS4_8durationIlSt5ratioILl1ELl1000000000EEEEEERNSt7__cxx1112basic_stringIcSt11char_traitsIcESaIcEEE+0xae4>
     77f:	41 83 fd 0a          	cmp    $0xa,%r13d
     783:	0f 86 5b 03 00 00    	jbe    ae4 <_Z2prI12SparseMatrixILi4EEEvPT_RNSt6chrono10time_pointINS4_3_V212system_clockENS4_8durationIlSt5ratioILl1ELl1000000000EEEEEERNSt7__cxx1112basic_stringIcSt11char_traitsIcESaIcEEE+0xae4>
     789:	48 89 d1             	mov    %rdx,%rcx
     78c:	48 c1 e9 02          	shr    $0x2,%rcx
     790:	48 f7 d9             	neg    %rcx
     793:	83 e1 03             	and    $0x3,%ecx
     796:	8d 41 03             	lea    0x3(%rcx),%eax
     799:	3b 84 24 94 00 00 00 	cmp    0x94(%rsp),%eax
     7a0:	0f 87 98 16 00 00    	ja     1e3e <_Z2prI12SparseMatrixILi4EEEvPT_RNSt6chrono10time_pointINS4_3_V212system_clockENS4_8durationIlSt5ratioILl1ELl1000000000EEEEEERNSt7__cxx1112basic_stringIcSt11char_traitsIcESaIcEEE+0x1e3e>
     7a6:	45 31 c9             	xor    %r9d,%r9d
     7a9:	85 c9                	test   %ecx,%ecx
     7ab:	74 4c                	je     7f9 <_Z2prI12SparseMatrixILi4EEEvPT_RNSt6chrono10time_pointINS4_3_V212system_clockENS4_8durationIlSt5ratioILl1ELl1000000000EEEEEERNSt7__cxx1112basic_stringIcSt11char_traitsIcESaIcEEE+0x7f9>
     7ad:	f3 0f 10 02          	movss  (%rdx),%xmm0
     7b1:	83 f9 01             	cmp    $0x1,%ecx
     7b4:	41 b9 01 00 00 00    	mov    $0x1,%r9d
     7ba:	f3 0f 11 06          	movss  %xmm0,(%rsi)
     7be:	c7 02 00 00 00 00    	movl   $0x0,(%rdx)
     7c4:	74 33                	je     7f9 <_Z2prI12SparseMatrixILi4EEEvPT_RNSt6chrono10time_pointINS4_3_V212system_clockENS4_8durationIlSt5ratioILl1ELl1000000000EEEEEERNSt7__cxx1112basic_stringIcSt11char_traitsIcESaIcEEE+0x7f9>
     7c6:	f3 0f 10 42 04       	movss  0x4(%rdx),%xmm0
     7cb:	83 f9 02             	cmp    $0x2,%ecx
     7ce:	f3 0f 11 46 04       	movss  %xmm0,0x4(%rsi)
     7d3:	41 b9 02 00 00 00    	mov    $0x2,%r9d
     7d9:	c7 42 04 00 00 00 00 	movl   $0x0,0x4(%rdx)
     7e0:	74 17                	je     7f9 <_Z2prI12SparseMatrixILi4EEEvPT_RNSt6chrono10time_pointINS4_3_V212system_clockENS4_8durationIlSt5ratioILl1ELl1000000000EEEEEERNSt7__cxx1112basic_stringIcSt11char_traitsIcESaIcEEE+0x7f9>
     7e2:	f3 0f 10 42 08       	movss  0x8(%rdx),%xmm0
     7e7:	41 b9 03 00 00 00    	mov    $0x3,%r9d
     7ed:	f3 0f 11 46 08       	movss  %xmm0,0x8(%rsi)
     7f2:	c7 42 08 00 00 00 00 	movl   $0x0,0x8(%rdx)
     7f9:	45 89 eb             	mov    %r13d,%r11d
     7fc:	66 0f ef c9          	pxor   %xmm1,%xmm1
     800:	41 29 cb             	sub    %ecx,%r11d
     803:	48 c1 e1 02          	shl    $0x2,%rcx
     807:	31 c0                	xor    %eax,%eax
     809:	45 89 da             	mov    %r11d,%r10d
     80c:	4c 8d 04 0a          	lea    (%rdx,%rcx,1),%r8
     810:	31 ff                	xor    %edi,%edi
     812:	41 c1 ea 02          	shr    $0x2,%r10d
     816:	48 01 f1             	add    %rsi,%rcx
     819:	0f 1f 80 00 00 00 00 	nopl   0x0(%rax)
     820:	41 0f 28 04 00       	movaps (%r8,%rax,1),%xmm0
     825:	83 c7 01             	add    $0x1,%edi
     828:	0f 11 04 01          	movups %xmm0,(%rcx,%rax,1)
     82c:	41 0f 29 0c 00       	movaps %xmm1,(%r8,%rax,1)
     831:	48 83 c0 10          	add    $0x10,%rax
     835:	41 39 fa             	cmp    %edi,%r10d
     838:	77 e6                	ja     820 <_Z2prI12SparseMatrixILi4EEEvPT_RNSt6chrono10time_pointINS4_3_V212system_clockENS4_8durationIlSt5ratioILl1ELl1000000000EEEEEERNSt7__cxx1112basic_stringIcSt11char_traitsIcESaIcEEE+0x820>
     83a:	44 89 d9             	mov    %r11d,%ecx
     83d:	83 e1 fc             	and    $0xfffffffc,%ecx
     840:	41 01 c9             	add    %ecx,%r9d
     843:	44 39 d9             	cmp    %r11d,%ecx
     846:	0f 84 b0 00 00 00    	je     8fc <_Z2prI12SparseMatrixILi4EEEvPT_RNSt6chrono10time_pointINS4_3_V212system_clockENS4_8durationIlSt5ratioILl1ELl1000000000EEEEEERNSt7__cxx1112basic_stringIcSt11char_traitsIcESaIcEEE+0x8fc>
     84c:	49 63 c9             	movslq %r9d,%rcx
     84f:	48 8d 04 8a          	lea    (%rdx,%rcx,4),%rax
     853:	f3 0f 10 00          	movss  (%rax),%xmm0
     857:	f3 0f 11 04 8e       	movss  %xmm0,(%rsi,%rcx,4)
     85c:	c7 00 00 00 00 00    	movl   $0x0,(%rax)
     862:	41 8d 41 01          	lea    0x1(%r9),%eax
     866:	41 39 c5             	cmp    %eax,%r13d
     869:	0f 8e 8d 00 00 00    	jle    8fc <_Z2prI12SparseMatrixILi4EEEvPT_RNSt6chrono10time_pointINS4_3_V212system_clockENS4_8durationIlSt5ratioILl1ELl1000000000EEEEEERNSt7__cxx1112basic_stringIcSt11char_traitsIcESaIcEEE+0x8fc>
     86f:	48 63 f8             	movslq %eax,%rdi
     872:	48 8d 0c ba          	lea    (%rdx,%rdi,4),%rcx
     876:	f3 0f 10 01          	movss  (%rcx),%xmm0
     87a:	f3 0f 11 04 be       	movss  %xmm0,(%rsi,%rdi,4)
     87f:	c7 01 00 00 00 00    	movl   $0x0,(%rcx)
     885:	8d 48 01             	lea    0x1(%rax),%ecx
     888:	41 39 cd             	cmp    %ecx,%r13d
